(dp1
S'output'
p2
S''
sS'layer'
p3
S'/home/samu/projects/web2py_cms/web2py/applications/file_manager/controllers/default.py'
p4
sS'code'
p5
S'# -*- coding: utf-8 -*- \n\n#########################################################################\n## This is a samples controller\n## - index is the default action of any application\n## - user is required for authentication and authorization\n## - download is for downloading files uploaded in the db (does streaming)\n## - call exposes all registered services (none by default)\n#########################################################################  \nfrom __future__ import with_statement # This isn\'t required in Python 2.6     \n__metaclass__ = type\nimport os\nimport sys\nimport time\nfrom PIL import Image\nfrom gluon.contrib import simplejson as json\nimport urllib\nimport datetime\nnow=datetime.datetime.now()\nsplit_path = os.path.split\nsplit_ext = os.path.splitext\npath_exists = os.path.exists\nnormalize_path = os.path.normpath\nabsolute_path = os.path.abspath \nencode_urlpath = urllib.quote_plus\noutput=os.path.join(request.folder,\'static\',\'test.txt\')\n\n\n\ndef index():\n    appname=request.application\n    return dict(appname=appname)\n    \n@service.json\ndef getinfo(path):\n    if path==\'True\':\n        path=request.vars.path\n    else:\n        path=path\n    row=db((db.allfiles.filepath==path)&(db.allfiles.user==me)).select()[0]\n    abspath=request.folder+path\n    iconfolder=\'static/images/fileicons/\'\n    absiconlocation=request.folder+iconfolder\n    iconlocation=\'/\'+request.application+\'/\'+iconfolder\n    filename=row.filename\n    filetype=row.filetype\n    datecreated=row.datecreated\n    datemodified=row.datemodified\n    filesize=row.filesize\n    thefile = {\n            \'Filename\' : filename,\n            \'FileType\' : \'\',\n            \'Preview\' : iconlocation+\'_Open.png\' if filetype==\'dir\' else \'\' ,\n            \'FilePreview\':\'\',\n            \'Path\' : path,\n            \'Error\' : \'\',\n            \'Code\' : 0,\n            \'Properties\' : {\n                    \'Date Created\' : \'\',\n                    \'Date Modified\' : \'\',\n                    \'Width\' : \'\',\n                    \'Height\' : \'\',\n                    \'Size\' : \'\'\n             }\n            }\n            \n    imagetypes = set([\'gif\',\'jpg\',\'jpeg\',\'png\',\'bmp\'])      \n        \n    if filetype==\'dir\':\n        thefile[\'FileType\'] = \'Directory\'\n    else:\n        thefile[\'FileType\'] = filetype  \n        if filetype in imagetypes:\n            thefile[\'Preview\']=\'/\'+request.application+\'/default/download/\'+row.file\n        elif filetype=="mp3" or filetype=="flv":\n            thefile[\'FileType\']=\'media\'\n            embedfile=\'/\'+request.application+\'/default/download/\'+row.file          \n            thefile[\'FilePreview\']=str(plugin_mediaplayer(embedfile,400,300))\n            previewPath = iconlocation + filetype.lower() + \'.png\'\n            abspreviewPath=absiconlocation+filetype.lower()+\'.png\'\n            thefile[\'Preview\'] = previewPath if os.path.exists(abspreviewPath) else iconlocation+\'default.png\'\n        else:\n            previewPath = iconlocation + filetype.lower() + \'.png\'\n            abspreviewPath=absiconlocation+filetype.lower()+\'.png\'\n            thefile[\'Preview\'] = previewPath if os.path.exists(abspreviewPath) else iconlocation+\'default.png\'\n        \n    thefile[\'Properties\'][\'Date Created\'] = datecreated \n    thefile[\'Properties\'][\'Date Modified\'] = datemodified\n    thefile[\'Properties\'][\'Size\'] = filesize\n    return thefile\n     \n@service.json   \ndef getdata():\n    path=request.vars.path\n    data=db((db.allfiles.filepath==path)&(db.allfiles.user==me)).select()[0]\n    textdata=data.content\n    return textdata\n\ndef updatedata():\n    data=request.vars.senddata\n    path=request.vars.getpath\n    db((db.allfiles.filepath==path)&(db.allfiles.user==me)).update(content=data)\n    return \'Updated!!!\'\n \n@service.json\ndef getfolder():   \n    path=request.vars.path\n    rows=db((db.allfiles.parentpath==path)&(db.allfiles.user==me)).select()    \n    result = {}\n    for row in rows:\n        result[row.filepath]=getinfo(row.filepath)\n    return result\n\ndef browsefiles():\n    files=db((db.allfiles.user==me)&(db.allfiles.filetype !=\'dir\')).select()\n    result={}\n    filetypes= set([\'gif\',\'jpg\',\'png\',\'bmp\',\'swf\'])\n    for rfile in files:\n        if rfile.filepath[-3:] in filetypes:\n            result[rfile.filepath]=getfileinfo(rfile.filepath)\n    return dict(result=result,cknum=request.vars.CKEditorFuncNum)\n    \ndef getfileinfo(path):\n    row=db((db.allfiles.filepath==path)&(db.allfiles.user==me)).select()[0]\n    abspath=request.folder+path\n    iconfolder=\'static/images/fileicons/\'\n    absiconlocation=request.folder+iconfolder\n    iconlocation=\'/\'+request.application+\'/\'+iconfolder\n    filename=row.filename\n    filetype=row.filetype\n    filesize=row.filesize\n    thefile = {\n            \'Filename\' : filename,\n            \'FileType\' : \'\',\n            \'Preview\' : iconlocation+\'_Open.png\' if filetype==\'dir\' else \'\' ,\n            \'FilePreview\':\'\',\n            \'Path\' : path,\n            \'Error\' : \'\',\n            \'Code\' : 0,\n            \'Properties\' : {\n                    \'Width\' : \'\',\n                    \'Height\' : \'\',\n                    \'Size\' : \'\'\n             }\n            }\n            \n    imagetypes = set([\'gif\',\'jpg\',\'jpeg\',\'png\',\'bmp\'])      \n        \n    if filetype==\'dir\':\n        thefile[\'FileType\'] = \'Directory\'\n    else:\n        thefile[\'FileType\'] = filetype  \n        if filetype in imagetypes:\n            thefile[\'Preview\']=\'/\'+request.application+\'/default/download/\'+row.file\n        elif filetype=="mp3" or filetype=="flv":\n            thefile[\'FileType\']=\'media\'\n            embedfile=\'/\'+request.application+\'/default/download/\'+row.file          \n            thefile[\'FilePreview\']=str(plugin_mediaplayer(embedfile,400,300))\n            previewPath = iconlocation + filetype.lower() + \'.png\'\n            abspreviewPath=absiconlocation+filetype.lower()+\'.png\'\n            thefile[\'Preview\'] = previewPath if os.path.exists(abspreviewPath) else iconlocation+\'default.png\'\n        else:\n            previewPath = iconlocation + filetype.lower() + \'.png\'\n            abspreviewPath=absiconlocation+filetype.lower()+\'.png\'\n            thefile[\'Preview\'] = previewPath if os.path.exists(abspreviewPath) else iconlocation+\'default.png\'        \n    thefile[\'Properties\'][\'Size\'] = filesize\n    return thefile\n\n\ndef dirlist():\n   import re\n   r=[\'<ul class="jqueryFileTree" style="display: none;">\']\n   path=request.post_vars.dir\n   rows=db((db.allfiles.parentpath==path)&(db.allfiles.user==me)).select()\n   if len(rows)==0 and path==\'/\':\n        Directories=[\'Documents\',\'Audios\',\'Videos\',\'Pictures\',\'Other\']\n        parentpath=\'/\'\n        for directory in Directories:\n            filename=directory\n            filepath=\'/\'+filename+\'/\'\n            db.allfiles.insert(filename=filename,filepath=filepath,parentpath=parentpath,filetype=\'dir\',datecreated=now,user=me)\n   rows=db((db.allfiles.parentpath==path)&(db.allfiles.user==me)).select()\n   for row in rows:\n       if row.filetype==\'dir\':\n          r.append(\'<li class="directory collapsed"><a href="#" rel="%s">%s</a></li>\' % (row.filepath,row.filename))    \n   r.append(\'</ul>\')\n   return r\n\n@service.json\ndef addfolder(param):    \n    filename=request.vars.name.replace(\' \',\'_\')\n    parentpath=request.vars.path\n    filepath=parentpath+filename+\'/\'\n    rows=db((db.allfiles.filepath==filepath)&(db.allfiles.user==me)).select()\n    recordexists=len(rows)\n    if not recordexists:\n        db.allfiles.insert(filename=filename,filepath=filepath,parentpath=parentpath,filetype=\'dir\',datecreated=now,user=me)\n        result= {\n                    \'Parent\' : parentpath,\n                    \'Name\' : filename,\n                    \'Error\' :\'\',\n                    \'Code\' :0\n                    }\n    else:\n        result = {\n                    \'Path\' : parentpath,\n                    \'Name\' : filename,\n                    \'Code\' : 1,\n                    \'Error\' : \'Folder already exists\'\n                }\n    return result\n    \n@service.json\ndef delete(param):\n    path=request.vars.path\n    #print "<--------------delete---------->"\n    #print "path:",path\n    filepaths=remove(path,pathset=[])\n    for filepath in filepaths:\n        if not filepath[-1]==\'/\':\n            row=db((db.allfiles.filepath==filepath )&(db.allfiles.user==me)).select()[0]\n            filename=row.file\n            os.remove(os.path.join(request.folder,\'uploads\',filename))\n        db((db.allfiles.filepath==filepath )&(db.allfiles.user==me)).delete()    \n    result={\n            \'Error\':\'No Error\',\n            \'Code\':0,\n            \'Path\': path \n           }        \n    return result\n     \n@service.json\ndef rename(param):\n    #print "<---------rename--------->"\n    oldpath=request.vars.old  \n    #print "oldpath:",oldpath      \n    #print "parentpath:",parentpath\n    newname = request.vars.new.replace(\' \',\'_\')    \n    result={\n            \'type\':\'\',\n            \'Old Path\':\'\',\n            \'New Path\':\'\',\n            \'Old Name\':\'\',\n            \'New eName\':\'\',\n            \'parent\':\'\',\n            \'Code\':0,\n            \'Error\':\'\'\n            } \n    if oldpath[-1]==\'/\':\n        oldname=split_path(oldpath[:-1])[-1]\n        parentpath=split_path(oldpath[:-1])[0]\n        if not parentpath==\'/\':\n            parentpath=parentpath+\'/\'\n        row=db((db.allfiles.parentpath==parentpath)&(db.allfiles.filetype==\'dir\') \\\n        &(db.allfiles.filename==newname)&(db.allfiles.user==me)).select()\n        if len(row)==1:\n            result[\'Code\']=1\n            result[\'Error\']=\'Folder already exists\'\n            return result\n        newpath=parentpath+newname+\'/\'\n        result[\'type\']=\'dir\'\n        db((db.allfiles.filepath==oldpath)&(db.allfiles.user==me)).update(filepath=newpath,filename=newname,datemodified=now)\n        renamedir(oldpath,oldname,newname)\n    else:   \n        oldname = split_path(oldpath)[-1]\n        parentpath = split_path(oldpath)[0]\n        if not parentpath==\'/\':\n            parentpath=parentpath+\'/\'        \n        newpath = parentpath + newname\n        row=db((db.allfiles.parentpath==parentpath)&(db.allfiles.filepath==newpath)&(db.allfiles.user==me)).select()\n        if len(row)==1:\n            result[\'Code\']=1\n            result[\'Error\']=\'File already exists\'\n            return result\n        result[\'type\']=\'file\'\n        db((db.allfiles.filepath==oldpath)&(db.allfiles.user==me)).update(filepath=newpath,filename=newname,datemodified=now)\n    result[\'parent\']=parentpath\n    result[\'Old Path\']= oldpath\n    result[\'Old Name\']=oldname\n    result[\'New Path\']=newpath\n    result[\'New eName\']=newname    \n    return result \n    \ndef renamedir(oldpath,oldname,newname):\n    newpath=oldpath.replace(oldname,newname)\n    rows=db((db.allfiles.parentpath==oldpath)&(db.allfiles.user==me)).select()\n    for row in rows:\n        if row.filepath[-1]==\'/\':\n            db((db.allfiles.parentpath==oldpath) \\\n            &(db.allfiles.user==me)).update(parentpath=row.parentpath.replace(oldname,newname),datemodified=now)\n            renamedir(row.filepath,oldname,newname)\n            db((db.allfiles.filepath==row.filepath) \\\n            &(db.allfiles.user==me)).update(filepath=row.filepath.replace(oldname,newname),datemodified=now)\n        else:\n            db((db.allfiles.filepath==row.filepath)&(db.allfiles.user==me)). \\\n            update(filepath=row.filepath.replace(oldname,newname),parentpath=row.parentpath.replace(oldname,newname),datemodified=now)\ndef user():\n    """\n    exposes:\n    http://..../[app]/default/user/login \n    http://..../[app]/default/user/logout\n    http://..../[app]/default/user/register\n    http://..../[app]/default/user/profile\n    http://..../[app]/default/user/retrieve_password\n    http://..../[app]/default/user/change_password\n    use @auth.requires_login()\n        @auth.requires_membership(\'group name\')\n        @auth.requires_permission(\'read\',\'table name\',record_id)\n    to decorate functions that need access control\n    """\n    return dict(form=auth())\n\n\ndef add():   \n    parentpath=request.vars.currentpath\n    file=request.vars.file\n    filename=file.filename.replace(\' \',\'_\')\n    \n    filepath=parentpath+filename\n    filetype=os.path.splitext(filename)[1][1:]\n    row=db((db.allfiles.parentpath==parentpath)&(db.allfiles.filepath==filepath)&(db.allfiles.filename==filename) \\\n    &(db.allfiles.user==me)).select()\n    if not len(row):    \n        db.allfiles.insert(filename=filename,filepath=filepath, \\\n            parentpath=parentpath,filetype=filetype,file=db.allfiles.file.store(file.file,filename),datecreated=now,user=me)   \n        result = {\n                \'Path\' : parentpath,\n                \'Name\' : filename,\n                \'Error\' :\'\',\n                \'Code\':0\n            }\n    else:\n        result = {\n                \'Path\' : parentpath,\n                \'Name\' : filename,\n                \'Error\' : \'File already exists\',\n                \'Code\':1\n            }\n        return \'<textarea>\'+str(result)+\'</textarea>\'\n    row=db((db.allfiles.filename==filename)&(db.allfiles.user==me)).select()[0]\n    insertedfile=row.file\n    outfile=open(output,\'wb\')\n    try:\n        filepath=os.path.join(request.folder,\'uploads\',insertedfile)\n        filesize=os.path.getsize(filepath)\n        if filepath[-3:]==\'txt\' or filepath[-4:]==\'html\':\n            filepath=os.path.normpath(filepath)\n            filein=open(filepath,\'r\')\n            dbcontent=filein.read()\n            filein.close()\n            db((db.allfiles.filename==filename)&(db.allfiles.user==me)).update(filesize=filesize,content=dbcontent)\n        else:\n            db((db.allfiles.filename==filename)&(db.allfiles.user==me)).update(filesize=filesize)\n        outfile.close()        \n    except:\n        outfile.write(str(sys.exc_info()[1]))\n        outfile.close()   \n    return \'<textarea>\'+str(result)+\'</textarea>\'\n\ndef downloadurl():\n    """\n    allows downloading of uploaded files\n    http://..../[app]/default/download/[filename]\n    """\n    filename=request.vars.filename\n    file=db((db.allfiles.filename==filename)&(db.allfiles.user==me)).select()[0]   \n    return file.file\n\ndef download():\n    return response.download(request,db)\n\ndef call():\n    """\n    exposes services. for example:\n    http://..../[app]/default/call/jsonrpc\n    decorate with @services.jsonrpc the functions to expose\n    supports xml, json, xmlrpc, jsonrpc, amfrpc, rss, csv\n    """\n    session.forget()\n    return service()\n\n\ndef remove(path,pathset):\n    if path[-1]==\'/\':\n        pathset.append(path)\n        rows=db((db.allfiles.parentpath==path)&(db.allfiles.user==me)).select()\n        for row in rows:\n            if row.filetype==\'dir\':\n                remove(row.filepath,pathset=pathset)\n            else:\n                pathset.append(row.filepath)\n    else:\n        pathset.append(path)\n    return pathset\n\nresponse._vars=response._caller(add)\n'
p6
sS'snapshot'
p7
(dp8
S'exception'
p9
(dp10
S'__hash__'
p11
S"<method-wrapper '__hash__' of exceptions.AttributeError object>"
p12
sS'__setattr__'
p13
S"<method-wrapper '__setattr__' of exceptions.AttributeError object>"
p14
sS'__reduce_ex__'
p15
S'<built-in method __reduce_ex__ of exceptions.AttributeError object>'
p16
sS'__getslice__'
p17
S"<method-wrapper '__getslice__' of exceptions.AttributeError object>"
p18
sS'__getitem__'
p19
S"<method-wrapper '__getitem__' of exceptions.AttributeError object>"
p20
sS'__setstate__'
p21
S'<built-in method __setstate__ of exceptions.AttributeError object>'
p22
sS'args'
p23
S'("\'str\' object has no attribute \'filename\'",)'
p24
sS'__reduce__'
p25
S'<built-in method __reduce__ of exceptions.AttributeError object>'
p26
sS'__str__'
p27
S"<method-wrapper '__str__' of exceptions.AttributeError object>"
p28
sS'__format__'
p29
S'<built-in method __format__ of exceptions.AttributeError object>'
p30
sS'__getattribute__'
p31
S"<method-wrapper '__getattribute__' of exceptions.AttributeError object>"
p32
sS'__class__'
p33
S"<type 'exceptions.AttributeError'>"
p34
sS'__unicode__'
p35
S'<built-in method __unicode__ of exceptions.AttributeError object>'
p36
sS'__delattr__'
p37
S"<method-wrapper '__delattr__' of exceptions.AttributeError object>"
p38
sS'__subclasshook__'
p39
S'<built-in method __subclasshook__ of type object>'
p40
sS'__repr__'
p41
S"<method-wrapper '__repr__' of exceptions.AttributeError object>"
p42
sS'__dict__'
p43
S'{}'
p44
sS'__sizeof__'
p45
S'<built-in method __sizeof__ of exceptions.AttributeError object>'
p46
sS'__doc__'
p47
S"'Attribute not found.'"
p48
sS'__init__'
p49
S"<method-wrapper '__init__' of exceptions.AttributeError object>"
p50
sS'__new__'
p51
S'<built-in method __new__ of type object>'
p52
ssS'evalue'
p53
S"'str' object has no attribute 'filename'"
p54
sS'request'
p55
ccopy_reg
_reconstructor
p56
(cgluon.html
BEAUTIFY
p57
c__builtin__
object
p58
NtRp59
(dp60
S'attributes'
p61
(dp62
sS'components'
p63
(lp64
g56
(cgluon.html
TABLE
p65
g58
NtRp66
(dp67
g61
(dp68
S'level'
p69
I5
ssS'parent'
p70
Nsg63
(lp71
g56
(cgluon.html
TR
p72
g58
NtRp73
(dp74
g61
(dp75
sg70
g66
sg63
(lp76
g56
(cgluon.html
TD
p77
g58
NtRp78
(dp79
g61
(dp80
S'_style'
p81
S'font-weight:bold;'
p82
ssg70
g73
sg63
(lp83
S'ajax'
p84
asbag56
(g77
g58
NtRp85
(dp86
g61
(dp87
S'_valign'
p88
S'top'
p89
ssg70
g73
sg63
(lp90
S':'
asbag56
(g77
g58
NtRp91
(dp92
g61
(dp93
sg70
g73
sg63
(lp94
g56
(g57
g58
NtRp95
(dp96
g61
(dp97
g69
I5
ssg70
g91
sg63
(lp98
S'True'
p99
asbasbasbag56
(g72
g58
NtRp100
(dp101
g61
(dp102
sg70
g66
sg63
(lp103
g56
(g77
g58
NtRp104
(dp105
g61
(dp106
g81
g82
ssg70
g100
sg63
(lp107
S'application'
p108
asbag56
(g77
g58
NtRp109
(dp110
g61
(dp111
g88
g89
ssg70
g100
sg63
(lp112
S':'
asbag56
(g77
g58
NtRp113
(dp114
g61
(dp115
sg70
g100
sg63
(lp116
g56
(g57
g58
NtRp117
(dp118
g61
(dp119
g69
I5
ssg70
g113
sg63
(lp120
S'file_manager'
p121
asbasbasbag56
(g72
g58
NtRp122
(dp123
g61
(dp124
sg70
g66
sg63
(lp125
g56
(g77
g58
NtRp126
(dp127
g61
(dp128
g81
g82
ssg70
g122
sg63
(lp129
g23
asbag56
(g77
g58
NtRp130
(dp131
g61
(dp132
g88
g89
ssg70
g122
sg63
(lp133
S':'
asbag56
(g77
g58
NtRp134
(dp135
g61
(dp136
sg70
g122
sg63
(lp137
g56
(g57
g58
NtRp138
(dp139
g61
(dp140
g69
I5
ssg70
g134
sg63
(lp141
g56
(g65
g58
NtRp142
(dp143
g61
(dp144
g69
I4
ssg70
Nsg63
(lp145
sbasbasbasbag56
(g72
g58
NtRp146
(dp147
g61
(dp148
sg70
g66
sg63
(lp149
g56
(g77
g58
NtRp150
(dp151
g61
(dp152
g81
g82
ssg70
g146
sg63
(lp153
S'body'
p154
asbag56
(g77
g58
NtRp155
(dp156
g61
(dp157
g88
g89
ssg70
g146
sg63
(lp158
S':'
asbag56
(g77
g58
NtRp159
(dp160
g61
(dp161
sg70
g146
sg63
(lp162
g56
(g57
g58
NtRp163
(dp164
g61
(dp165
g69
I5
ssg70
g159
sg63
(lp166
S"<open file '<fdopen>', mode 'w+b' at 0x1e60db0>"
p167
asbasbasbag56
(g72
g58
NtRp168
(dp169
g61
(dp170
sg70
g66
sg63
(lp171
g56
(g77
g58
NtRp172
(dp173
g61
(dp174
g81
g82
ssg70
g168
sg63
(lp175
S'client'
p176
asbag56
(g77
g58
NtRp177
(dp178
g61
(dp179
g88
g89
ssg70
g168
sg63
(lp180
S':'
asbag56
(g77
g58
NtRp181
(dp182
g61
(dp183
sg70
g168
sg63
(lp184
g56
(g57
g58
NtRp185
(dp186
g61
(dp187
g69
I5
ssg70
g181
sg63
(lp188
S'127.0.0.1'
p189
asbasbasbag56
(g72
g58
NtRp190
(dp191
g61
(dp192
sg70
g66
sg63
(lp193
g56
(g77
g58
NtRp194
(dp195
g61
(dp196
g81
g82
ssg70
g190
sg63
(lp197
S'controller'
p198
asbag56
(g77
g58
NtRp199
(dp200
g61
(dp201
g88
g89
ssg70
g190
sg63
(lp202
S':'
asbag56
(g77
g58
NtRp203
(dp204
g61
(dp205
sg70
g190
sg63
(lp206
g56
(g57
g58
NtRp207
(dp208
g61
(dp209
g69
I5
ssg70
g203
sg63
(lp210
S'default'
p211
asbasbasbag56
(g72
g58
NtRp212
(dp213
g61
(dp214
sg70
g66
sg63
(lp215
g56
(g77
g58
NtRp216
(dp217
g61
(dp218
g81
g82
ssg70
g212
sg63
(lp219
S'cookies'
p220
asbag56
(g77
g58
NtRp221
(dp222
g61
(dp223
g88
g89
ssg70
g212
sg63
(lp224
S':'
asbag56
(g77
g58
NtRp225
(dp226
g61
(dp227
sg70
g212
sg63
(lp228
g56
(g57
g58
NtRp229
(dp230
g61
(dp231
g69
I5
ssg70
g225
sg63
(lp232
g56
(g65
g58
NtRp233
(dp234
g61
(dp235
g69
I4
ssg70
Nsg63
(lp236
g56
(g72
g58
NtRp237
(dp238
g61
(dp239
sg70
g233
sg63
(lp240
g56
(g77
g58
NtRp241
(dp242
g61
(dp243
g81
g82
ssg70
g237
sg63
(lp244
S'session_id_admin'
p245
asbag56
(g77
g58
NtRp246
(dp247
g61
(dp248
g88
g89
ssg70
g237
sg63
(lp249
S':'
asbag56
(g77
g58
NtRp250
(dp251
g61
(dp252
sg70
g237
sg63
(lp253
g56
(g57
g58
NtRp254
(dp255
g61
(dp256
g69
I4
ssg70
g250
sg63
(lp257
g56
(g65
g58
NtRp258
(dp259
g61
(dp260
g69
I3
ssg70
Nsg63
(lp261
g56
(g72
g58
NtRp262
(dp263
g61
(dp264
sg70
g258
sg63
(lp265
g56
(g77
g58
NtRp266
(dp267
g61
(dp268
g81
g82
ssg70
g262
sg63
(lp269
S'comment'
p270
asbag56
(g77
g58
NtRp271
(dp272
g61
(dp273
g88
g89
ssg70
g262
sg63
(lp274
S':'
asbag56
(g77
g58
NtRp275
(dp276
g61
(dp277
sg70
g262
sg63
(lp278
g56
(g57
g58
NtRp279
(dp280
g61
(dp281
g69
I3
ssg70
g275
sg63
(lp282
S''
asbasbasbag56
(g72
g58
NtRp283
(dp284
g61
(dp285
sg70
g258
sg63
(lp286
g56
(g77
g58
NtRp287
(dp288
g61
(dp289
g81
g82
ssg70
g283
sg63
(lp290
S'domain'
p291
asbag56
(g77
g58
NtRp292
(dp293
g61
(dp294
g88
g89
ssg70
g283
sg63
(lp295
S':'
asbag56
(g77
g58
NtRp296
(dp297
g61
(dp298
sg70
g283
sg63
(lp299
g56
(g57
g58
NtRp300
(dp301
g61
(dp302
g69
I3
ssg70
g296
sg63
(lp303
S''
asbasbasbag56
(g72
g58
NtRp304
(dp305
g61
(dp306
sg70
g258
sg63
(lp307
g56
(g77
g58
NtRp308
(dp309
g61
(dp310
g81
g82
ssg70
g304
sg63
(lp311
S'expires'
p312
asbag56
(g77
g58
NtRp313
(dp314
g61
(dp315
g88
g89
ssg70
g304
sg63
(lp316
S':'
asbag56
(g77
g58
NtRp317
(dp318
g61
(dp319
sg70
g304
sg63
(lp320
g56
(g57
g58
NtRp321
(dp322
g61
(dp323
g69
I3
ssg70
g317
sg63
(lp324
S''
asbasbasbag56
(g72
g58
NtRp325
(dp326
g61
(dp327
sg70
g258
sg63
(lp328
g56
(g77
g58
NtRp329
(dp330
g61
(dp331
g81
g82
ssg70
g325
sg63
(lp332
S'httponly'
p333
asbag56
(g77
g58
NtRp334
(dp335
g61
(dp336
g88
g89
ssg70
g325
sg63
(lp337
S':'
asbag56
(g77
g58
NtRp338
(dp339
g61
(dp340
sg70
g325
sg63
(lp341
g56
(g57
g58
NtRp342
(dp343
g61
(dp344
g69
I3
ssg70
g338
sg63
(lp345
S''
asbasbasbag56
(g72
g58
NtRp346
(dp347
g61
(dp348
sg70
g258
sg63
(lp349
g56
(g77
g58
NtRp350
(dp351
g61
(dp352
g81
g82
ssg70
g346
sg63
(lp353
S'max-age'
p354
asbag56
(g77
g58
NtRp355
(dp356
g61
(dp357
g88
g89
ssg70
g346
sg63
(lp358
S':'
asbag56
(g77
g58
NtRp359
(dp360
g61
(dp361
sg70
g346
sg63
(lp362
g56
(g57
g58
NtRp363
(dp364
g61
(dp365
g69
I3
ssg70
g359
sg63
(lp366
S''
asbasbasbag56
(g72
g58
NtRp367
(dp368
g61
(dp369
sg70
g258
sg63
(lp370
g56
(g77
g58
NtRp371
(dp372
g61
(dp373
g81
g82
ssg70
g367
sg63
(lp374
S'path'
p375
asbag56
(g77
g58
NtRp376
(dp377
g61
(dp378
g88
g89
ssg70
g367
sg63
(lp379
S':'
asbag56
(g77
g58
NtRp380
(dp381
g61
(dp382
sg70
g367
sg63
(lp383
g56
(g57
g58
NtRp384
(dp385
g61
(dp386
g69
I3
ssg70
g380
sg63
(lp387
S''
asbasbasbag56
(g72
g58
NtRp388
(dp389
g61
(dp390
sg70
g258
sg63
(lp391
g56
(g77
g58
NtRp392
(dp393
g61
(dp394
g81
g82
ssg70
g388
sg63
(lp395
S'secure'
p396
asbag56
(g77
g58
NtRp397
(dp398
g61
(dp399
g88
g89
ssg70
g388
sg63
(lp400
S':'
asbag56
(g77
g58
NtRp401
(dp402
g61
(dp403
sg70
g388
sg63
(lp404
g56
(g57
g58
NtRp405
(dp406
g61
(dp407
g69
I3
ssg70
g401
sg63
(lp408
S''
asbasbasbag56
(g72
g58
NtRp409
(dp410
g61
(dp411
sg70
g258
sg63
(lp412
g56
(g77
g58
NtRp413
(dp414
g61
(dp415
g81
g82
ssg70
g409
sg63
(lp416
S'version'
p417
asbag56
(g77
g58
NtRp418
(dp419
g61
(dp420
g88
g89
ssg70
g409
sg63
(lp421
S':'
asbag56
(g77
g58
NtRp422
(dp423
g61
(dp424
sg70
g409
sg63
(lp425
g56
(g57
g58
NtRp426
(dp427
g61
(dp428
g69
I3
ssg70
g422
sg63
(lp429
S''
asbasbasbasbasbasbasbag56
(g72
g58
NtRp430
(dp431
g61
(dp432
sg70
g233
sg63
(lp433
g56
(g77
g58
NtRp434
(dp435
g61
(dp436
g81
g82
ssg70
g430
sg63
(lp437
S'session_id_file_manager'
p438
asbag56
(g77
g58
NtRp439
(dp440
g61
(dp441
g88
g89
ssg70
g430
sg63
(lp442
S':'
asbag56
(g77
g58
NtRp443
(dp444
g61
(dp445
sg70
g430
sg63
(lp446
g56
(g57
g58
NtRp447
(dp448
g61
(dp449
g69
I4
ssg70
g443
sg63
(lp450
g56
(g65
g58
NtRp451
(dp452
g61
(dp453
g69
I3
ssg70
Nsg63
(lp454
g56
(g72
g58
NtRp455
(dp456
g61
(dp457
sg70
g451
sg63
(lp458
g56
(g77
g58
NtRp459
(dp460
g61
(dp461
g81
g82
ssg70
g455
sg63
(lp462
g270
asbag56
(g77
g58
NtRp463
(dp464
g61
(dp465
g88
g89
ssg70
g455
sg63
(lp466
S':'
asbag56
(g77
g58
NtRp467
(dp468
g61
(dp469
sg70
g455
sg63
(lp470
g56
(g57
g58
NtRp471
(dp472
g61
(dp473
g69
I3
ssg70
g467
sg63
(lp474
S''
asbasbasbag56
(g72
g58
NtRp475
(dp476
g61
(dp477
sg70
g451
sg63
(lp478
g56
(g77
g58
NtRp479
(dp480
g61
(dp481
g81
g82
ssg70
g475
sg63
(lp482
g291
asbag56
(g77
g58
NtRp483
(dp484
g61
(dp485
g88
g89
ssg70
g475
sg63
(lp486
S':'
asbag56
(g77
g58
NtRp487
(dp488
g61
(dp489
sg70
g475
sg63
(lp490
g56
(g57
g58
NtRp491
(dp492
g61
(dp493
g69
I3
ssg70
g487
sg63
(lp494
S''
asbasbasbag56
(g72
g58
NtRp495
(dp496
g61
(dp497
sg70
g451
sg63
(lp498
g56
(g77
g58
NtRp499
(dp500
g61
(dp501
g81
g82
ssg70
g495
sg63
(lp502
g312
asbag56
(g77
g58
NtRp503
(dp504
g61
(dp505
g88
g89
ssg70
g495
sg63
(lp506
S':'
asbag56
(g77
g58
NtRp507
(dp508
g61
(dp509
sg70
g495
sg63
(lp510
g56
(g57
g58
NtRp511
(dp512
g61
(dp513
g69
I3
ssg70
g507
sg63
(lp514
S''
asbasbasbag56
(g72
g58
NtRp515
(dp516
g61
(dp517
sg70
g451
sg63
(lp518
g56
(g77
g58
NtRp519
(dp520
g61
(dp521
g81
g82
ssg70
g515
sg63
(lp522
g333
asbag56
(g77
g58
NtRp523
(dp524
g61
(dp525
g88
g89
ssg70
g515
sg63
(lp526
S':'
asbag56
(g77
g58
NtRp527
(dp528
g61
(dp529
sg70
g515
sg63
(lp530
g56
(g57
g58
NtRp531
(dp532
g61
(dp533
g69
I3
ssg70
g527
sg63
(lp534
S''
asbasbasbag56
(g72
g58
NtRp535
(dp536
g61
(dp537
sg70
g451
sg63
(lp538
g56
(g77
g58
NtRp539
(dp540
g61
(dp541
g81
g82
ssg70
g535
sg63
(lp542
g354
asbag56
(g77
g58
NtRp543
(dp544
g61
(dp545
g88
g89
ssg70
g535
sg63
(lp546
S':'
asbag56
(g77
g58
NtRp547
(dp548
g61
(dp549
sg70
g535
sg63
(lp550
g56
(g57
g58
NtRp551
(dp552
g61
(dp553
g69
I3
ssg70
g547
sg63
(lp554
S''
asbasbasbag56
(g72
g58
NtRp555
(dp556
g61
(dp557
sg70
g451
sg63
(lp558
g56
(g77
g58
NtRp559
(dp560
g61
(dp561
g81
g82
ssg70
g555
sg63
(lp562
g375
asbag56
(g77
g58
NtRp563
(dp564
g61
(dp565
g88
g89
ssg70
g555
sg63
(lp566
S':'
asbag56
(g77
g58
NtRp567
(dp568
g61
(dp569
sg70
g555
sg63
(lp570
g56
(g57
g58
NtRp571
(dp572
g61
(dp573
g69
I3
ssg70
g567
sg63
(lp574
S''
asbasbasbag56
(g72
g58
NtRp575
(dp576
g61
(dp577
sg70
g451
sg63
(lp578
g56
(g77
g58
NtRp579
(dp580
g61
(dp581
g81
g82
ssg70
g575
sg63
(lp582
g396
asbag56
(g77
g58
NtRp583
(dp584
g61
(dp585
g88
g89
ssg70
g575
sg63
(lp586
S':'
asbag56
(g77
g58
NtRp587
(dp588
g61
(dp589
sg70
g575
sg63
(lp590
g56
(g57
g58
NtRp591
(dp592
g61
(dp593
g69
I3
ssg70
g587
sg63
(lp594
S''
asbasbasbag56
(g72
g58
NtRp595
(dp596
g61
(dp597
sg70
g451
sg63
(lp598
g56
(g77
g58
NtRp599
(dp600
g61
(dp601
g81
g82
ssg70
g595
sg63
(lp602
g417
asbag56
(g77
g58
NtRp603
(dp604
g61
(dp605
g88
g89
ssg70
g595
sg63
(lp606
S':'
asbag56
(g77
g58
NtRp607
(dp608
g61
(dp609
sg70
g595
sg63
(lp610
g56
(g57
g58
NtRp611
(dp612
g61
(dp613
g69
I3
ssg70
g607
sg63
(lp614
S''
asbasbasbasbasbasbasbag56
(g72
g58
NtRp615
(dp616
g61
(dp617
sg70
g233
sg63
(lp618
g56
(g77
g58
NtRp619
(dp620
g61
(dp621
g81
g82
ssg70
g615
sg63
(lp622
S'session_id_instantpress'
p623
asbag56
(g77
g58
NtRp624
(dp625
g61
(dp626
g88
g89
ssg70
g615
sg63
(lp627
S':'
asbag56
(g77
g58
NtRp628
(dp629
g61
(dp630
sg70
g615
sg63
(lp631
g56
(g57
g58
NtRp632
(dp633
g61
(dp634
g69
I4
ssg70
g628
sg63
(lp635
g56
(g65
g58
NtRp636
(dp637
g61
(dp638
g69
I3
ssg70
Nsg63
(lp639
g56
(g72
g58
NtRp640
(dp641
g61
(dp642
sg70
g636
sg63
(lp643
g56
(g77
g58
NtRp644
(dp645
g61
(dp646
g81
g82
ssg70
g640
sg63
(lp647
g270
asbag56
(g77
g58
NtRp648
(dp649
g61
(dp650
g88
g89
ssg70
g640
sg63
(lp651
S':'
asbag56
(g77
g58
NtRp652
(dp653
g61
(dp654
sg70
g640
sg63
(lp655
g56
(g57
g58
NtRp656
(dp657
g61
(dp658
g69
I3
ssg70
g652
sg63
(lp659
S''
asbasbasbag56
(g72
g58
NtRp660
(dp661
g61
(dp662
sg70
g636
sg63
(lp663
g56
(g77
g58
NtRp664
(dp665
g61
(dp666
g81
g82
ssg70
g660
sg63
(lp667
g291
asbag56
(g77
g58
NtRp668
(dp669
g61
(dp670
g88
g89
ssg70
g660
sg63
(lp671
S':'
asbag56
(g77
g58
NtRp672
(dp673
g61
(dp674
sg70
g660
sg63
(lp675
g56
(g57
g58
NtRp676
(dp677
g61
(dp678
g69
I3
ssg70
g672
sg63
(lp679
S''
asbasbasbag56
(g72
g58
NtRp680
(dp681
g61
(dp682
sg70
g636
sg63
(lp683
g56
(g77
g58
NtRp684
(dp685
g61
(dp686
g81
g82
ssg70
g680
sg63
(lp687
g312
asbag56
(g77
g58
NtRp688
(dp689
g61
(dp690
g88
g89
ssg70
g680
sg63
(lp691
S':'
asbag56
(g77
g58
NtRp692
(dp693
g61
(dp694
sg70
g680
sg63
(lp695
g56
(g57
g58
NtRp696
(dp697
g61
(dp698
g69
I3
ssg70
g692
sg63
(lp699
S''
asbasbasbag56
(g72
g58
NtRp700
(dp701
g61
(dp702
sg70
g636
sg63
(lp703
g56
(g77
g58
NtRp704
(dp705
g61
(dp706
g81
g82
ssg70
g700
sg63
(lp707
g333
asbag56
(g77
g58
NtRp708
(dp709
g61
(dp710
g88
g89
ssg70
g700
sg63
(lp711
S':'
asbag56
(g77
g58
NtRp712
(dp713
g61
(dp714
sg70
g700
sg63
(lp715
g56
(g57
g58
NtRp716
(dp717
g61
(dp718
g69
I3
ssg70
g712
sg63
(lp719
S''
asbasbasbag56
(g72
g58
NtRp720
(dp721
g61
(dp722
sg70
g636
sg63
(lp723
g56
(g77
g58
NtRp724
(dp725
g61
(dp726
g81
g82
ssg70
g720
sg63
(lp727
g354
asbag56
(g77
g58
NtRp728
(dp729
g61
(dp730
g88
g89
ssg70
g720
sg63
(lp731
S':'
asbag56
(g77
g58
NtRp732
(dp733
g61
(dp734
sg70
g720
sg63
(lp735
g56
(g57
g58
NtRp736
(dp737
g61
(dp738
g69
I3
ssg70
g732
sg63
(lp739
S''
asbasbasbag56
(g72
g58
NtRp740
(dp741
g61
(dp742
sg70
g636
sg63
(lp743
g56
(g77
g58
NtRp744
(dp745
g61
(dp746
g81
g82
ssg70
g740
sg63
(lp747
g375
asbag56
(g77
g58
NtRp748
(dp749
g61
(dp750
g88
g89
ssg70
g740
sg63
(lp751
S':'
asbag56
(g77
g58
NtRp752
(dp753
g61
(dp754
sg70
g740
sg63
(lp755
g56
(g57
g58
NtRp756
(dp757
g61
(dp758
g69
I3
ssg70
g752
sg63
(lp759
S''
asbasbasbag56
(g72
g58
NtRp760
(dp761
g61
(dp762
sg70
g636
sg63
(lp763
g56
(g77
g58
NtRp764
(dp765
g61
(dp766
g81
g82
ssg70
g760
sg63
(lp767
g396
asbag56
(g77
g58
NtRp768
(dp769
g61
(dp770
g88
g89
ssg70
g760
sg63
(lp771
S':'
asbag56
(g77
g58
NtRp772
(dp773
g61
(dp774
sg70
g760
sg63
(lp775
g56
(g57
g58
NtRp776
(dp777
g61
(dp778
g69
I3
ssg70
g772
sg63
(lp779
S''
asbasbasbag56
(g72
g58
NtRp780
(dp781
g61
(dp782
sg70
g636
sg63
(lp783
g56
(g77
g58
NtRp784
(dp785
g61
(dp786
g81
g82
ssg70
g780
sg63
(lp787
g417
asbag56
(g77
g58
NtRp788
(dp789
g61
(dp790
g88
g89
ssg70
g780
sg63
(lp791
S':'
asbag56
(g77
g58
NtRp792
(dp793
g61
(dp794
sg70
g780
sg63
(lp795
g56
(g57
g58
NtRp796
(dp797
g61
(dp798
g69
I3
ssg70
g792
sg63
(lp799
S''
asbasbasbasbasbasbasbag56
(g72
g58
NtRp800
(dp801
g61
(dp802
sg70
g233
sg63
(lp803
g56
(g77
g58
NtRp804
(dp805
g61
(dp806
g81
g82
ssg70
g800
sg63
(lp807
S'session_id_w2cms'
p808
asbag56
(g77
g58
NtRp809
(dp810
g61
(dp811
g88
g89
ssg70
g800
sg63
(lp812
S':'
asbag56
(g77
g58
NtRp813
(dp814
g61
(dp815
sg70
g800
sg63
(lp816
g56
(g57
g58
NtRp817
(dp818
g61
(dp819
g69
I4
ssg70
g813
sg63
(lp820
g56
(g65
g58
NtRp821
(dp822
g61
(dp823
g69
I3
ssg70
Nsg63
(lp824
g56
(g72
g58
NtRp825
(dp826
g61
(dp827
sg70
g821
sg63
(lp828
g56
(g77
g58
NtRp829
(dp830
g61
(dp831
g81
g82
ssg70
g825
sg63
(lp832
g270
asbag56
(g77
g58
NtRp833
(dp834
g61
(dp835
g88
g89
ssg70
g825
sg63
(lp836
S':'
asbag56
(g77
g58
NtRp837
(dp838
g61
(dp839
sg70
g825
sg63
(lp840
g56
(g57
g58
NtRp841
(dp842
g61
(dp843
g69
I3
ssg70
g837
sg63
(lp844
S''
asbasbasbag56
(g72
g58
NtRp845
(dp846
g61
(dp847
sg70
g821
sg63
(lp848
g56
(g77
g58
NtRp849
(dp850
g61
(dp851
g81
g82
ssg70
g845
sg63
(lp852
g291
asbag56
(g77
g58
NtRp853
(dp854
g61
(dp855
g88
g89
ssg70
g845
sg63
(lp856
S':'
asbag56
(g77
g58
NtRp857
(dp858
g61
(dp859
sg70
g845
sg63
(lp860
g56
(g57
g58
NtRp861
(dp862
g61
(dp863
g69
I3
ssg70
g857
sg63
(lp864
S''
asbasbasbag56
(g72
g58
NtRp865
(dp866
g61
(dp867
sg70
g821
sg63
(lp868
g56
(g77
g58
NtRp869
(dp870
g61
(dp871
g81
g82
ssg70
g865
sg63
(lp872
g312
asbag56
(g77
g58
NtRp873
(dp874
g61
(dp875
g88
g89
ssg70
g865
sg63
(lp876
S':'
asbag56
(g77
g58
NtRp877
(dp878
g61
(dp879
sg70
g865
sg63
(lp880
g56
(g57
g58
NtRp881
(dp882
g61
(dp883
g69
I3
ssg70
g877
sg63
(lp884
S''
asbasbasbag56
(g72
g58
NtRp885
(dp886
g61
(dp887
sg70
g821
sg63
(lp888
g56
(g77
g58
NtRp889
(dp890
g61
(dp891
g81
g82
ssg70
g885
sg63
(lp892
g333
asbag56
(g77
g58
NtRp893
(dp894
g61
(dp895
g88
g89
ssg70
g885
sg63
(lp896
S':'
asbag56
(g77
g58
NtRp897
(dp898
g61
(dp899
sg70
g885
sg63
(lp900
g56
(g57
g58
NtRp901
(dp902
g61
(dp903
g69
I3
ssg70
g897
sg63
(lp904
S''
asbasbasbag56
(g72
g58
NtRp905
(dp906
g61
(dp907
sg70
g821
sg63
(lp908
g56
(g77
g58
NtRp909
(dp910
g61
(dp911
g81
g82
ssg70
g905
sg63
(lp912
g354
asbag56
(g77
g58
NtRp913
(dp914
g61
(dp915
g88
g89
ssg70
g905
sg63
(lp916
S':'
asbag56
(g77
g58
NtRp917
(dp918
g61
(dp919
sg70
g905
sg63
(lp920
g56
(g57
g58
NtRp921
(dp922
g61
(dp923
g69
I3
ssg70
g917
sg63
(lp924
S''
asbasbasbag56
(g72
g58
NtRp925
(dp926
g61
(dp927
sg70
g821
sg63
(lp928
g56
(g77
g58
NtRp929
(dp930
g61
(dp931
g81
g82
ssg70
g925
sg63
(lp932
g375
asbag56
(g77
g58
NtRp933
(dp934
g61
(dp935
g88
g89
ssg70
g925
sg63
(lp936
S':'
asbag56
(g77
g58
NtRp937
(dp938
g61
(dp939
sg70
g925
sg63
(lp940
g56
(g57
g58
NtRp941
(dp942
g61
(dp943
g69
I3
ssg70
g937
sg63
(lp944
S''
asbasbasbag56
(g72
g58
NtRp945
(dp946
g61
(dp947
sg70
g821
sg63
(lp948
g56
(g77
g58
NtRp949
(dp950
g61
(dp951
g81
g82
ssg70
g945
sg63
(lp952
g396
asbag56
(g77
g58
NtRp953
(dp954
g61
(dp955
g88
g89
ssg70
g945
sg63
(lp956
S':'
asbag56
(g77
g58
NtRp957
(dp958
g61
(dp959
sg70
g945
sg63
(lp960
g56
(g57
g58
NtRp961
(dp962
g61
(dp963
g69
I3
ssg70
g957
sg63
(lp964
S''
asbasbasbag56
(g72
g58
NtRp965
(dp966
g61
(dp967
sg70
g821
sg63
(lp968
g56
(g77
g58
NtRp969
(dp970
g61
(dp971
g81
g82
ssg70
g965
sg63
(lp972
g417
asbag56
(g77
g58
NtRp973
(dp974
g61
(dp975
g88
g89
ssg70
g965
sg63
(lp976
S':'
asbag56
(g77
g58
NtRp977
(dp978
g61
(dp979
sg70
g965
sg63
(lp980
g56
(g57
g58
NtRp981
(dp982
g61
(dp983
g69
I3
ssg70
g977
sg63
(lp984
S''
asbasbasbasbasbasbasbag56
(g72
g58
NtRp985
(dp986
g61
(dp987
sg70
g233
sg63
(lp988
g56
(g77
g58
NtRp989
(dp990
g61
(dp991
g81
g82
ssg70
g985
sg63
(lp992
S'session_id_welcome'
p993
asbag56
(g77
g58
NtRp994
(dp995
g61
(dp996
g88
g89
ssg70
g985
sg63
(lp997
S':'
asbag56
(g77
g58
NtRp998
(dp999
g61
(dp1000
sg70
g985
sg63
(lp1001
g56
(g57
g58
NtRp1002
(dp1003
g61
(dp1004
g69
I4
ssg70
g998
sg63
(lp1005
g56
(g65
g58
NtRp1006
(dp1007
g61
(dp1008
g69
I3
ssg70
Nsg63
(lp1009
g56
(g72
g58
NtRp1010
(dp1011
g61
(dp1012
sg70
g1006
sg63
(lp1013
g56
(g77
g58
NtRp1014
(dp1015
g61
(dp1016
g81
g82
ssg70
g1010
sg63
(lp1017
g270
asbag56
(g77
g58
NtRp1018
(dp1019
g61
(dp1020
g88
g89
ssg70
g1010
sg63
(lp1021
S':'
asbag56
(g77
g58
NtRp1022
(dp1023
g61
(dp1024
sg70
g1010
sg63
(lp1025
g56
(g57
g58
NtRp1026
(dp1027
g61
(dp1028
g69
I3
ssg70
g1022
sg63
(lp1029
S''
asbasbasbag56
(g72
g58
NtRp1030
(dp1031
g61
(dp1032
sg70
g1006
sg63
(lp1033
g56
(g77
g58
NtRp1034
(dp1035
g61
(dp1036
g81
g82
ssg70
g1030
sg63
(lp1037
g291
asbag56
(g77
g58
NtRp1038
(dp1039
g61
(dp1040
g88
g89
ssg70
g1030
sg63
(lp1041
S':'
asbag56
(g77
g58
NtRp1042
(dp1043
g61
(dp1044
sg70
g1030
sg63
(lp1045
g56
(g57
g58
NtRp1046
(dp1047
g61
(dp1048
g69
I3
ssg70
g1042
sg63
(lp1049
S''
asbasbasbag56
(g72
g58
NtRp1050
(dp1051
g61
(dp1052
sg70
g1006
sg63
(lp1053
g56
(g77
g58
NtRp1054
(dp1055
g61
(dp1056
g81
g82
ssg70
g1050
sg63
(lp1057
g312
asbag56
(g77
g58
NtRp1058
(dp1059
g61
(dp1060
g88
g89
ssg70
g1050
sg63
(lp1061
S':'
asbag56
(g77
g58
NtRp1062
(dp1063
g61
(dp1064
sg70
g1050
sg63
(lp1065
g56
(g57
g58
NtRp1066
(dp1067
g61
(dp1068
g69
I3
ssg70
g1062
sg63
(lp1069
S''
asbasbasbag56
(g72
g58
NtRp1070
(dp1071
g61
(dp1072
sg70
g1006
sg63
(lp1073
g56
(g77
g58
NtRp1074
(dp1075
g61
(dp1076
g81
g82
ssg70
g1070
sg63
(lp1077
g333
asbag56
(g77
g58
NtRp1078
(dp1079
g61
(dp1080
g88
g89
ssg70
g1070
sg63
(lp1081
S':'
asbag56
(g77
g58
NtRp1082
(dp1083
g61
(dp1084
sg70
g1070
sg63
(lp1085
g56
(g57
g58
NtRp1086
(dp1087
g61
(dp1088
g69
I3
ssg70
g1082
sg63
(lp1089
S''
asbasbasbag56
(g72
g58
NtRp1090
(dp1091
g61
(dp1092
sg70
g1006
sg63
(lp1093
g56
(g77
g58
NtRp1094
(dp1095
g61
(dp1096
g81
g82
ssg70
g1090
sg63
(lp1097
g354
asbag56
(g77
g58
NtRp1098
(dp1099
g61
(dp1100
g88
g89
ssg70
g1090
sg63
(lp1101
S':'
asbag56
(g77
g58
NtRp1102
(dp1103
g61
(dp1104
sg70
g1090
sg63
(lp1105
g56
(g57
g58
NtRp1106
(dp1107
g61
(dp1108
g69
I3
ssg70
g1102
sg63
(lp1109
S''
asbasbasbag56
(g72
g58
NtRp1110
(dp1111
g61
(dp1112
sg70
g1006
sg63
(lp1113
g56
(g77
g58
NtRp1114
(dp1115
g61
(dp1116
g81
g82
ssg70
g1110
sg63
(lp1117
g375
asbag56
(g77
g58
NtRp1118
(dp1119
g61
(dp1120
g88
g89
ssg70
g1110
sg63
(lp1121
S':'
asbag56
(g77
g58
NtRp1122
(dp1123
g61
(dp1124
sg70
g1110
sg63
(lp1125
g56
(g57
g58
NtRp1126
(dp1127
g61
(dp1128
g69
I3
ssg70
g1122
sg63
(lp1129
S''
asbasbasbag56
(g72
g58
NtRp1130
(dp1131
g61
(dp1132
sg70
g1006
sg63
(lp1133
g56
(g77
g58
NtRp1134
(dp1135
g61
(dp1136
g81
g82
ssg70
g1130
sg63
(lp1137
g396
asbag56
(g77
g58
NtRp1138
(dp1139
g61
(dp1140
g88
g89
ssg70
g1130
sg63
(lp1141
S':'
asbag56
(g77
g58
NtRp1142
(dp1143
g61
(dp1144
sg70
g1130
sg63
(lp1145
g56
(g57
g58
NtRp1146
(dp1147
g61
(dp1148
g69
I3
ssg70
g1142
sg63
(lp1149
S''
asbasbasbag56
(g72
g58
NtRp1150
(dp1151
g61
(dp1152
sg70
g1006
sg63
(lp1153
g56
(g77
g58
NtRp1154
(dp1155
g61
(dp1156
g81
g82
ssg70
g1150
sg63
(lp1157
g417
asbag56
(g77
g58
NtRp1158
(dp1159
g61
(dp1160
g88
g89
ssg70
g1150
sg63
(lp1161
S':'
asbag56
(g77
g58
NtRp1162
(dp1163
g61
(dp1164
sg70
g1150
sg63
(lp1165
g56
(g57
g58
NtRp1166
(dp1167
g61
(dp1168
g69
I3
ssg70
g1162
sg63
(lp1169
S''
asbasbasbasbasbasbasbasbasbasbasbag56
(g72
g58
NtRp1170
(dp1171
g61
(dp1172
sg70
g66
sg63
(lp1173
g56
(g77
g58
NtRp1174
(dp1175
g61
(dp1176
g81
g82
ssg70
g1170
sg63
(lp1177
S'env'
p1178
asbag56
(g77
g58
NtRp1179
(dp1180
g61
(dp1181
g88
g89
ssg70
g1170
sg63
(lp1182
S':'
asbag56
(g77
g58
NtRp1183
(dp1184
g61
(dp1185
sg70
g1170
sg63
(lp1186
g56
(g57
g58
NtRp1187
(dp1188
g61
(dp1189
g69
I5
ssg70
g1183
sg63
(lp1190
g56
(g65
g58
NtRp1191
(dp1192
g61
(dp1193
g69
I4
ssg70
Nsg63
(lp1194
g56
(g72
g58
NtRp1195
(dp1196
g61
(dp1197
sg70
g1191
sg63
(lp1198
g56
(g77
g58
NtRp1199
(dp1200
g61
(dp1201
g81
g82
ssg70
g1195
sg63
(lp1202
S'app_folders'
p1203
asbag56
(g77
g58
NtRp1204
(dp1205
g61
(dp1206
g88
g89
ssg70
g1195
sg63
(lp1207
S':'
asbag56
(g77
g58
NtRp1208
(dp1209
g61
(dp1210
sg70
g1195
sg63
(lp1211
g56
(g57
g58
NtRp1212
(dp1213
g61
(dp1214
g69
I4
ssg70
g1208
sg63
(lp1215
S"set(['/home/samu/projects/web2py_cms/web2py/applications/admin/', '/home/samu/projects/web2py_cms/web2py/applications/file_manager/', '/home/samu/projects/web2py_cms/web2py/applications/w2cms/'])"
p1216
asbasbasbag56
(g72
g58
NtRp1217
(dp1218
g61
(dp1219
sg70
g1191
sg63
(lp1220
g56
(g77
g58
NtRp1221
(dp1222
g61
(dp1223
g81
g82
ssg70
g1217
sg63
(lp1224
S'applications_parent'
p1225
asbag56
(g77
g58
NtRp1226
(dp1227
g61
(dp1228
g88
g89
ssg70
g1217
sg63
(lp1229
S':'
asbag56
(g77
g58
NtRp1230
(dp1231
g61
(dp1232
sg70
g1217
sg63
(lp1233
g56
(g57
g58
NtRp1234
(dp1235
g61
(dp1236
g69
I4
ssg70
g1230
sg63
(lp1237
S'/home/samu/projects/web2py_cms/web2py'
p1238
asbasbasbag56
(g72
g58
NtRp1239
(dp1240
g61
(dp1241
sg70
g1191
sg63
(lp1242
g56
(g77
g58
NtRp1243
(dp1244
g61
(dp1245
g81
g82
ssg70
g1239
sg63
(lp1246
S'cmd_args'
p1247
asbag56
(g77
g58
NtRp1248
(dp1249
g61
(dp1250
g88
g89
ssg70
g1239
sg63
(lp1251
S':'
asbag56
(g77
g58
NtRp1252
(dp1253
g61
(dp1254
sg70
g1239
sg63
(lp1255
g56
(g57
g58
NtRp1256
(dp1257
g61
(dp1258
g69
I4
ssg70
g1252
sg63
(lp1259
g56
(g65
g58
NtRp1260
(dp1261
g61
(dp1262
g69
I3
ssg70
Nsg63
(lp1263
sbasbasbasbag56
(g72
g58
NtRp1264
(dp1265
g61
(dp1266
sg70
g1191
sg63
(lp1267
g56
(g77
g58
NtRp1268
(dp1269
g61
(dp1270
g81
g82
ssg70
g1264
sg63
(lp1271
S'cmd_options'
p1272
asbag56
(g77
g58
NtRp1273
(dp1274
g61
(dp1275
g88
g89
ssg70
g1264
sg63
(lp1276
S':'
asbag56
(g77
g58
NtRp1277
(dp1278
g61
(dp1279
sg70
g1264
sg63
(lp1280
g56
(g57
g58
NtRp1281
(dp1282
g61
(dp1283
g69
I4
ssg70
g1277
sg63
(lp1284
S"<Values at 0x1495a70: {'verbose': False, 'ip': '127.0.0.1', 'shutdown_timeout': 5, 'taskbar': False, 'nocron': False, 'pid_filename': 'httpserver.pid', 'maxthreads': None, 'softcron': False, 'server_name': 'tr-is', 'bpython': False, 'nogui': False, 'port': 8000, 'extcron': False, 'debuglevel': 30, 'test': None, 'folder': '/home/samu/projects/web2py_cms/web2py', 'config': '', 'import_models': False, 'winservice': '', 'shell': None, 'run': '', 'log_filename': 'httpserver.log', 'args': [''], 'ssl_ca_certificate': None, 'scheduler': None, 'profiler_filename': None, 'ssl_private_key': '', 'password': 'pippo', 'request_queue_size': 5, 'ssl_certificate': '', 'cronjob': False, 'plain': False, 'quiet': False, 'interfaces': None, 'minthreads': None, 'timeout': 10, 'numthreads': None, 'nobanner': False}>"
p1285
asbasbasbag56
(g72
g58
NtRp1286
(dp1287
g61
(dp1288
sg70
g1191
sg63
(lp1289
g56
(g77
g58
NtRp1290
(dp1291
g61
(dp1292
g81
g82
ssg70
g1286
sg63
(lp1293
S'content_length'
p1294
asbag56
(g77
g58
NtRp1295
(dp1296
g61
(dp1297
g88
g89
ssg70
g1286
sg63
(lp1298
S':'
asbag56
(g77
g58
NtRp1299
(dp1300
g61
(dp1301
sg70
g1286
sg63
(lp1302
g56
(g57
g58
NtRp1303
(dp1304
g61
(dp1305
g69
I4
ssg70
g1299
sg63
(lp1306
S'56'
p1307
asbasbasbag56
(g72
g58
NtRp1308
(dp1309
g61
(dp1310
sg70
g1191
sg63
(lp1311
g56
(g77
g58
NtRp1312
(dp1313
g61
(dp1314
g81
g82
ssg70
g1308
sg63
(lp1315
S'content_type'
p1316
asbag56
(g77
g58
NtRp1317
(dp1318
g61
(dp1319
g88
g89
ssg70
g1308
sg63
(lp1320
S':'
asbag56
(g77
g58
NtRp1321
(dp1322
g61
(dp1323
sg70
g1308
sg63
(lp1324
g56
(g57
g58
NtRp1325
(dp1326
g61
(dp1327
g69
I4
ssg70
g1321
sg63
(lp1328
S'application/x-www-form-urlencoded; charset=UTF-8'
p1329
asbasbasbag56
(g72
g58
NtRp1330
(dp1331
g61
(dp1332
sg70
g1191
sg63
(lp1333
g56
(g77
g58
NtRp1334
(dp1335
g61
(dp1336
g81
g82
ssg70
g1330
sg63
(lp1337
S'db_sessions'
p1338
asbag56
(g77
g58
NtRp1339
(dp1340
g61
(dp1341
g88
g89
ssg70
g1330
sg63
(lp1342
S':'
asbag56
(g77
g58
NtRp1343
(dp1344
g61
(dp1345
sg70
g1330
sg63
(lp1346
g56
(g57
g58
NtRp1347
(dp1348
g61
(dp1349
g69
I4
ssg70
g1343
sg63
(lp1350
S'set([])'
p1351
asbasbasbag56
(g72
g58
NtRp1352
(dp1353
g61
(dp1354
sg70
g1191
sg63
(lp1355
g56
(g77
g58
NtRp1356
(dp1357
g61
(dp1358
g81
g82
ssg70
g1352
sg63
(lp1359
S'debugging'
p1360
asbag56
(g77
g58
NtRp1361
(dp1362
g61
(dp1363
g88
g89
ssg70
g1352
sg63
(lp1364
S':'
asbag56
(g77
g58
NtRp1365
(dp1366
g61
(dp1367
sg70
g1352
sg63
(lp1368
g56
(g57
g58
NtRp1369
(dp1370
g61
(dp1371
g69
I4
ssg70
g1365
sg63
(lp1372
S'False'
p1373
asbasbasbag56
(g72
g58
NtRp1374
(dp1375
g61
(dp1376
sg70
g1191
sg63
(lp1377
g56
(g77
g58
NtRp1378
(dp1379
g61
(dp1380
g81
g82
ssg70
g1374
sg63
(lp1381
S'gluon_parent'
p1382
asbag56
(g77
g58
NtRp1383
(dp1384
g61
(dp1385
g88
g89
ssg70
g1374
sg63
(lp1386
S':'
asbag56
(g77
g58
NtRp1387
(dp1388
g61
(dp1389
sg70
g1374
sg63
(lp1390
g56
(g57
g58
NtRp1391
(dp1392
g61
(dp1393
g69
I4
ssg70
g1387
sg63
(lp1394
S'/home/samu/projects/web2py_cms/web2py'
p1395
asbasbasbag56
(g72
g58
NtRp1396
(dp1397
g61
(dp1398
sg70
g1191
sg63
(lp1399
g56
(g77
g58
NtRp1400
(dp1401
g61
(dp1402
g81
g82
ssg70
g1396
sg63
(lp1403
S'http_accept'
p1404
asbag56
(g77
g58
NtRp1405
(dp1406
g61
(dp1407
g88
g89
ssg70
g1396
sg63
(lp1408
S':'
asbag56
(g77
g58
NtRp1409
(dp1410
g61
(dp1411
sg70
g1396
sg63
(lp1412
g56
(g57
g58
NtRp1413
(dp1414
g61
(dp1415
g69
I4
ssg70
g1409
sg63
(lp1416
S'*/*'
p1417
asbasbasbag56
(g72
g58
NtRp1418
(dp1419
g61
(dp1420
sg70
g1191
sg63
(lp1421
g56
(g77
g58
NtRp1422
(dp1423
g61
(dp1424
g81
g82
ssg70
g1418
sg63
(lp1425
S'http_accept_charset'
p1426
asbag56
(g77
g58
NtRp1427
(dp1428
g61
(dp1429
g88
g89
ssg70
g1418
sg63
(lp1430
S':'
asbag56
(g77
g58
NtRp1431
(dp1432
g61
(dp1433
sg70
g1418
sg63
(lp1434
g56
(g57
g58
NtRp1435
(dp1436
g61
(dp1437
g69
I4
ssg70
g1431
sg63
(lp1438
S'ISO-8859-1,utf-8;q=0.7,*;q=0.7'
p1439
asbasbasbag56
(g72
g58
NtRp1440
(dp1441
g61
(dp1442
sg70
g1191
sg63
(lp1443
g56
(g77
g58
NtRp1444
(dp1445
g61
(dp1446
g81
g82
ssg70
g1440
sg63
(lp1447
S'http_accept_encoding'
p1448
asbag56
(g77
g58
NtRp1449
(dp1450
g61
(dp1451
g88
g89
ssg70
g1440
sg63
(lp1452
S':'
asbag56
(g77
g58
NtRp1453
(dp1454
g61
(dp1455
sg70
g1440
sg63
(lp1456
g56
(g57
g58
NtRp1457
(dp1458
g61
(dp1459
g69
I4
ssg70
g1453
sg63
(lp1460
S'gzip, deflate'
p1461
asbasbasbag56
(g72
g58
NtRp1462
(dp1463
g61
(dp1464
sg70
g1191
sg63
(lp1465
g56
(g77
g58
NtRp1466
(dp1467
g61
(dp1468
g81
g82
ssg70
g1462
sg63
(lp1469
S'http_accept_language'
p1470
asbag56
(g77
g58
NtRp1471
(dp1472
g61
(dp1473
g88
g89
ssg70
g1462
sg63
(lp1474
S':'
asbag56
(g77
g58
NtRp1475
(dp1476
g61
(dp1477
sg70
g1462
sg63
(lp1478
g56
(g57
g58
NtRp1479
(dp1480
g61
(dp1481
g69
I4
ssg70
g1475
sg63
(lp1482
S'en-us,en;q=0.7,it;q=0.3'
p1483
asbasbasbag56
(g72
g58
NtRp1484
(dp1485
g61
(dp1486
sg70
g1191
sg63
(lp1487
g56
(g77
g58
NtRp1488
(dp1489
g61
(dp1490
g81
g82
ssg70
g1484
sg63
(lp1491
S'http_cache_control'
p1492
asbag56
(g77
g58
NtRp1493
(dp1494
g61
(dp1495
g88
g89
ssg70
g1484
sg63
(lp1496
S':'
asbag56
(g77
g58
NtRp1497
(dp1498
g61
(dp1499
sg70
g1484
sg63
(lp1500
g56
(g57
g58
NtRp1501
(dp1502
g61
(dp1503
g69
I4
ssg70
g1497
sg63
(lp1504
S'no-cache'
p1505
asbasbasbag56
(g72
g58
NtRp1506
(dp1507
g61
(dp1508
sg70
g1191
sg63
(lp1509
g56
(g77
g58
NtRp1510
(dp1511
g61
(dp1512
g81
g82
ssg70
g1506
sg63
(lp1513
S'http_connection'
p1514
asbag56
(g77
g58
NtRp1515
(dp1516
g61
(dp1517
g88
g89
ssg70
g1506
sg63
(lp1518
S':'
asbag56
(g77
g58
NtRp1519
(dp1520
g61
(dp1521
sg70
g1506
sg63
(lp1522
g56
(g57
g58
NtRp1523
(dp1524
g61
(dp1525
g69
I4
ssg70
g1519
sg63
(lp1526
S'keep-alive'
p1527
asbasbasbag56
(g72
g58
NtRp1528
(dp1529
g61
(dp1530
sg70
g1191
sg63
(lp1531
g56
(g77
g58
NtRp1532
(dp1533
g61
(dp1534
g81
g82
ssg70
g1528
sg63
(lp1535
S'http_content_length'
p1536
asbag56
(g77
g58
NtRp1537
(dp1538
g61
(dp1539
g88
g89
ssg70
g1528
sg63
(lp1540
S':'
asbag56
(g77
g58
NtRp1541
(dp1542
g61
(dp1543
sg70
g1528
sg63
(lp1544
g56
(g57
g58
NtRp1545
(dp1546
g61
(dp1547
g69
I4
ssg70
g1541
sg63
(lp1548
g1307
asbasbasbag56
(g72
g58
NtRp1549
(dp1550
g61
(dp1551
sg70
g1191
sg63
(lp1552
g56
(g77
g58
NtRp1553
(dp1554
g61
(dp1555
g81
g82
ssg70
g1549
sg63
(lp1556
S'http_content_type'
p1557
asbag56
(g77
g58
NtRp1558
(dp1559
g61
(dp1560
g88
g89
ssg70
g1549
sg63
(lp1561
S':'
asbag56
(g77
g58
NtRp1562
(dp1563
g61
(dp1564
sg70
g1549
sg63
(lp1565
g56
(g57
g58
NtRp1566
(dp1567
g61
(dp1568
g69
I4
ssg70
g1562
sg63
(lp1569
g1329
asbasbasbag56
(g72
g58
NtRp1570
(dp1571
g61
(dp1572
sg70
g1191
sg63
(lp1573
g56
(g77
g58
NtRp1574
(dp1575
g61
(dp1576
g81
g82
ssg70
g1570
sg63
(lp1577
S'http_cookie'
p1578
asbag56
(g77
g58
NtRp1579
(dp1580
g61
(dp1581
g88
g89
ssg70
g1570
sg63
(lp1582
S':'
asbag56
(g77
g58
NtRp1583
(dp1584
g61
(dp1585
sg70
g1570
sg63
(lp1586
g56
(g57
g58
NtRp1587
(dp1588
g61
(dp1589
g69
I4
ssg70
g1583
sg63
(lp1590
S'__utma_a2a=6342723276.1348607614.1317050688.1319930669.1319930669.6; session_id_instantpress=127.0.0.1-52dcac66-8bdf-4178-af64-591513cc90e6; session_id_w2cms=127.0.0.1-b7f33779-2f0e-4e9a-ba52-c2eb5596a954; session_id_welcome=127.0.0.1-9610af21-c6a1-45dc-a88a-956dbf01eb61; session_id_admin=127.0.0.1-0b994393-b09f-494a-bfe0-859856b2c55c; session_id_file_manager=127.0.0.1-2cf6758f-f933-4625-830c-09b2c67bedef'
p1591
asbasbasbag56
(g72
g58
NtRp1592
(dp1593
g61
(dp1594
sg70
g1191
sg63
(lp1595
g56
(g77
g58
NtRp1596
(dp1597
g61
(dp1598
g81
g82
ssg70
g1592
sg63
(lp1599
S'http_host'
p1600
asbag56
(g77
g58
NtRp1601
(dp1602
g61
(dp1603
g88
g89
ssg70
g1592
sg63
(lp1604
S':'
asbag56
(g77
g58
NtRp1605
(dp1606
g61
(dp1607
sg70
g1592
sg63
(lp1608
g56
(g57
g58
NtRp1609
(dp1610
g61
(dp1611
g69
I4
ssg70
g1605
sg63
(lp1612
S'127.0.0.1:8000'
p1613
asbasbasbag56
(g72
g58
NtRp1614
(dp1615
g61
(dp1616
sg70
g1191
sg63
(lp1617
g56
(g77
g58
NtRp1618
(dp1619
g61
(dp1620
g81
g82
ssg70
g1614
sg63
(lp1621
S'http_pragma'
p1622
asbag56
(g77
g58
NtRp1623
(dp1624
g61
(dp1625
g88
g89
ssg70
g1614
sg63
(lp1626
S':'
asbag56
(g77
g58
NtRp1627
(dp1628
g61
(dp1629
sg70
g1614
sg63
(lp1630
g56
(g57
g58
NtRp1631
(dp1632
g61
(dp1633
g69
I4
ssg70
g1627
sg63
(lp1634
S'no-cache'
p1635
asbasbasbag56
(g72
g58
NtRp1636
(dp1637
g61
(dp1638
sg70
g1191
sg63
(lp1639
g56
(g77
g58
NtRp1640
(dp1641
g61
(dp1642
g81
g82
ssg70
g1636
sg63
(lp1643
S'http_referer'
p1644
asbag56
(g77
g58
NtRp1645
(dp1646
g61
(dp1647
g88
g89
ssg70
g1636
sg63
(lp1648
S':'
asbag56
(g77
g58
NtRp1649
(dp1650
g61
(dp1651
sg70
g1636
sg63
(lp1652
g56
(g57
g58
NtRp1653
(dp1654
g61
(dp1655
g69
I4
ssg70
g1649
sg63
(lp1656
S'http://127.0.0.1:8000/file_manager/default/index'
p1657
asbasbasbag56
(g72
g58
NtRp1658
(dp1659
g61
(dp1660
sg70
g1191
sg63
(lp1661
g56
(g77
g58
NtRp1662
(dp1663
g61
(dp1664
g81
g82
ssg70
g1658
sg63
(lp1665
S'http_user_agent'
p1666
asbag56
(g77
g58
NtRp1667
(dp1668
g61
(dp1669
g88
g89
ssg70
g1658
sg63
(lp1670
S':'
asbag56
(g77
g58
NtRp1671
(dp1672
g61
(dp1673
sg70
g1658
sg63
(lp1674
g56
(g57
g58
NtRp1675
(dp1676
g61
(dp1677
g69
I4
ssg70
g1671
sg63
(lp1678
S'Mozilla/5.0 (X11; Linux x86_64; rv:7.0.1) Gecko/20100101 Firefox/7.0.1 Iceweasel/7.0.1'
p1679
asbasbasbag56
(g72
g58
NtRp1680
(dp1681
g61
(dp1682
sg70
g1191
sg63
(lp1683
g56
(g77
g58
NtRp1684
(dp1685
g61
(dp1686
g81
g82
ssg70
g1680
sg63
(lp1687
S'http_x_requested_with'
p1688
asbag56
(g77
g58
NtRp1689
(dp1690
g61
(dp1691
g88
g89
ssg70
g1680
sg63
(lp1692
S':'
asbag56
(g77
g58
NtRp1693
(dp1694
g61
(dp1695
sg70
g1680
sg63
(lp1696
g56
(g57
g58
NtRp1697
(dp1698
g61
(dp1699
g69
I4
ssg70
g1693
sg63
(lp1700
S'XMLHttpRequest'
p1701
asbasbasbag56
(g72
g58
NtRp1702
(dp1703
g61
(dp1704
sg70
g1191
sg63
(lp1705
g56
(g77
g58
NtRp1706
(dp1707
g61
(dp1708
g81
g82
ssg70
g1702
sg63
(lp1709
S'is_jython'
p1710
asbag56
(g77
g58
NtRp1711
(dp1712
g61
(dp1713
g88
g89
ssg70
g1702
sg63
(lp1714
S':'
asbag56
(g77
g58
NtRp1715
(dp1716
g61
(dp1717
sg70
g1702
sg63
(lp1718
g56
(g57
g58
NtRp1719
(dp1720
g61
(dp1721
g69
I4
ssg70
g1715
sg63
(lp1722
g1373
asbasbasbag56
(g72
g58
NtRp1723
(dp1724
g61
(dp1725
sg70
g1191
sg63
(lp1726
g56
(g77
g58
NtRp1727
(dp1728
g61
(dp1729
g81
g82
ssg70
g1723
sg63
(lp1730
S'path_info'
p1731
asbag56
(g77
g58
NtRp1732
(dp1733
g61
(dp1734
g88
g89
ssg70
g1723
sg63
(lp1735
S':'
asbag56
(g77
g58
NtRp1736
(dp1737
g61
(dp1738
sg70
g1723
sg63
(lp1739
g56
(g57
g58
NtRp1740
(dp1741
g61
(dp1742
g69
I4
ssg70
g1736
sg63
(lp1743
S'/file_manager/default/add'
p1744
asbasbasbag56
(g72
g58
NtRp1745
(dp1746
g61
(dp1747
sg70
g1191
sg63
(lp1748
g56
(g77
g58
NtRp1749
(dp1750
g61
(dp1751
g81
g82
ssg70
g1745
sg63
(lp1752
S'query_string'
p1753
asbag56
(g77
g58
NtRp1754
(dp1755
g61
(dp1756
g88
g89
ssg70
g1745
sg63
(lp1757
S':'
asbag56
(g77
g58
NtRp1758
(dp1759
g61
(dp1760
sg70
g1745
sg63
(lp1761
g56
(g57
g58
NtRp1762
(dp1763
g61
(dp1764
g69
I4
ssg70
g1758
sg63
(lp1765
S''
asbasbasbag56
(g72
g58
NtRp1766
(dp1767
g61
(dp1768
sg70
g1191
sg63
(lp1769
g56
(g77
g58
NtRp1770
(dp1771
g61
(dp1772
g81
g82
ssg70
g1766
sg63
(lp1773
S'remote_addr'
p1774
asbag56
(g77
g58
NtRp1775
(dp1776
g61
(dp1777
g88
g89
ssg70
g1766
sg63
(lp1778
S':'
asbag56
(g77
g58
NtRp1779
(dp1780
g61
(dp1781
sg70
g1766
sg63
(lp1782
g56
(g57
g58
NtRp1783
(dp1784
g61
(dp1785
g69
I4
ssg70
g1779
sg63
(lp1786
g189
asbasbasbag56
(g72
g58
NtRp1787
(dp1788
g61
(dp1789
sg70
g1191
sg63
(lp1790
g56
(g77
g58
NtRp1791
(dp1792
g61
(dp1793
g81
g82
ssg70
g1787
sg63
(lp1794
S'remote_port'
p1795
asbag56
(g77
g58
NtRp1796
(dp1797
g61
(dp1798
g88
g89
ssg70
g1787
sg63
(lp1799
S':'
asbag56
(g77
g58
NtRp1800
(dp1801
g61
(dp1802
sg70
g1787
sg63
(lp1803
g56
(g57
g58
NtRp1804
(dp1805
g61
(dp1806
g69
I4
ssg70
g1800
sg63
(lp1807
S'51710'
p1808
asbasbasbag56
(g72
g58
NtRp1809
(dp1810
g61
(dp1811
sg70
g1191
sg63
(lp1812
g56
(g77
g58
NtRp1813
(dp1814
g61
(dp1815
g81
g82
ssg70
g1809
sg63
(lp1816
S'request_method'
p1817
asbag56
(g77
g58
NtRp1818
(dp1819
g61
(dp1820
g88
g89
ssg70
g1809
sg63
(lp1821
S':'
asbag56
(g77
g58
NtRp1822
(dp1823
g61
(dp1824
sg70
g1809
sg63
(lp1825
g56
(g57
g58
NtRp1826
(dp1827
g61
(dp1828
g69
I4
ssg70
g1822
sg63
(lp1829
S'POST'
p1830
asbasbasbag56
(g72
g58
NtRp1831
(dp1832
g61
(dp1833
sg70
g1191
sg63
(lp1834
g56
(g77
g58
NtRp1835
(dp1836
g61
(dp1837
g81
g82
ssg70
g1831
sg63
(lp1838
S'script_name'
p1839
asbag56
(g77
g58
NtRp1840
(dp1841
g61
(dp1842
g88
g89
ssg70
g1831
sg63
(lp1843
S':'
asbag56
(g77
g58
NtRp1844
(dp1845
g61
(dp1846
sg70
g1831
sg63
(lp1847
g56
(g57
g58
NtRp1848
(dp1849
g61
(dp1850
g69
I4
ssg70
g1844
sg63
(lp1851
S''
asbasbasbag56
(g72
g58
NtRp1852
(dp1853
g61
(dp1854
sg70
g1191
sg63
(lp1855
g56
(g77
g58
NtRp1856
(dp1857
g61
(dp1858
g81
g82
ssg70
g1852
sg63
(lp1859
S'server_name'
p1860
asbag56
(g77
g58
NtRp1861
(dp1862
g61
(dp1863
g88
g89
ssg70
g1852
sg63
(lp1864
S':'
asbag56
(g77
g58
NtRp1865
(dp1866
g61
(dp1867
sg70
g1852
sg63
(lp1868
g56
(g57
g58
NtRp1869
(dp1870
g61
(dp1871
g69
I4
ssg70
g1865
sg63
(lp1872
S'tr-is'
p1873
asbasbasbag56
(g72
g58
NtRp1874
(dp1875
g61
(dp1876
sg70
g1191
sg63
(lp1877
g56
(g77
g58
NtRp1878
(dp1879
g61
(dp1880
g81
g82
ssg70
g1874
sg63
(lp1881
S'server_port'
p1882
asbag56
(g77
g58
NtRp1883
(dp1884
g61
(dp1885
g88
g89
ssg70
g1874
sg63
(lp1886
S':'
asbag56
(g77
g58
NtRp1887
(dp1888
g61
(dp1889
sg70
g1874
sg63
(lp1890
g56
(g57
g58
NtRp1891
(dp1892
g61
(dp1893
g69
I4
ssg70
g1887
sg63
(lp1894
S'8000'
p1895
asbasbasbag56
(g72
g58
NtRp1896
(dp1897
g61
(dp1898
sg70
g1191
sg63
(lp1899
g56
(g77
g58
NtRp1900
(dp1901
g61
(dp1902
g81
g82
ssg70
g1896
sg63
(lp1903
S'server_protocol'
p1904
asbag56
(g77
g58
NtRp1905
(dp1906
g61
(dp1907
g88
g89
ssg70
g1896
sg63
(lp1908
S':'
asbag56
(g77
g58
NtRp1909
(dp1910
g61
(dp1911
sg70
g1896
sg63
(lp1912
g56
(g57
g58
NtRp1913
(dp1914
g61
(dp1915
g69
I4
ssg70
g1909
sg63
(lp1916
S'HTTP/1.1'
p1917
asbasbasbag56
(g72
g58
NtRp1918
(dp1919
g61
(dp1920
sg70
g1191
sg63
(lp1921
g56
(g77
g58
NtRp1922
(dp1923
g61
(dp1924
g81
g82
ssg70
g1918
sg63
(lp1925
S'server_software'
p1926
asbag56
(g77
g58
NtRp1927
(dp1928
g61
(dp1929
g88
g89
ssg70
g1918
sg63
(lp1930
S':'
asbag56
(g77
g58
NtRp1931
(dp1932
g61
(dp1933
sg70
g1918
sg63
(lp1934
g56
(g57
g58
NtRp1935
(dp1936
g61
(dp1937
g69
I4
ssg70
g1931
sg63
(lp1938
S'Rocket 1.2.4'
p1939
asbasbasbag56
(g72
g58
NtRp1940
(dp1941
g61
(dp1942
sg70
g1191
sg63
(lp1943
g56
(g77
g58
NtRp1944
(dp1945
g61
(dp1946
g81
g82
ssg70
g1940
sg63
(lp1947
S'web2py_crontype'
p1948
asbag56
(g77
g58
NtRp1949
(dp1950
g61
(dp1951
g88
g89
ssg70
g1940
sg63
(lp1952
S':'
asbag56
(g77
g58
NtRp1953
(dp1954
g61
(dp1955
sg70
g1940
sg63
(lp1956
g56
(g57
g58
NtRp1957
(dp1958
g61
(dp1959
g69
I4
ssg70
g1953
sg63
(lp1960
S'hard'
p1961
asbasbasbag56
(g72
g58
NtRp1962
(dp1963
g61
(dp1964
sg70
g1191
sg63
(lp1965
g56
(g77
g58
NtRp1966
(dp1967
g61
(dp1968
g81
g82
ssg70
g1962
sg63
(lp1969
S'web2py_path'
p1970
asbag56
(g77
g58
NtRp1971
(dp1972
g61
(dp1973
g88
g89
ssg70
g1962
sg63
(lp1974
S':'
asbag56
(g77
g58
NtRp1975
(dp1976
g61
(dp1977
sg70
g1962
sg63
(lp1978
g56
(g57
g58
NtRp1979
(dp1980
g61
(dp1981
g69
I4
ssg70
g1975
sg63
(lp1982
g1238
asbasbasbag56
(g72
g58
NtRp1983
(dp1984
g61
(dp1985
sg70
g1191
sg63
(lp1986
g56
(g77
g58
NtRp1987
(dp1988
g61
(dp1989
g81
g82
ssg70
g1983
sg63
(lp1990
S'web2py_version'
p1991
asbag56
(g77
g58
NtRp1992
(dp1993
g61
(dp1994
g88
g89
ssg70
g1983
sg63
(lp1995
S':'
asbag56
(g77
g58
NtRp1996
(dp1997
g61
(dp1998
sg70
g1983
sg63
(lp1999
g56
(g57
g58
NtRp2000
(dp2001
g61
(dp2002
g69
I4
ssg70
g1996
sg63
(lp2003
g56
(g65
g58
NtRp2004
(dp2005
g61
(dp2006
g69
I3
ssg70
Nsg63
(lp2007
g56
(g72
g58
NtRp2008
(dp2009
g61
(dp2010
sg70
g2004
sg63
(lp2011
g56
(g77
g58
NtRp2012
(dp2013
g61
(dp2014
sg70
g2008
sg63
(lp2015
g56
(g57
g58
NtRp2016
(dp2017
g61
(dp2018
g69
I3
ssg70
g2012
sg63
(lp2019
S'1'
asbasbasbag56
(g72
g58
NtRp2020
(dp2021
g61
(dp2022
sg70
g2004
sg63
(lp2023
g56
(g77
g58
NtRp2024
(dp2025
g61
(dp2026
sg70
g2020
sg63
(lp2027
g56
(g57
g58
NtRp2028
(dp2029
g61
(dp2030
g69
I3
ssg70
g2024
sg63
(lp2031
S'99'
p2032
asbasbasbag56
(g72
g58
NtRp2033
(dp2034
g61
(dp2035
sg70
g2004
sg63
(lp2036
g56
(g77
g58
NtRp2037
(dp2038
g61
(dp2039
sg70
g2033
sg63
(lp2040
g56
(g57
g58
NtRp2041
(dp2042
g61
(dp2043
g69
I3
ssg70
g2037
sg63
(lp2044
S'2'
asbasbasbag56
(g72
g58
NtRp2045
(dp2046
g61
(dp2047
sg70
g2004
sg63
(lp2048
g56
(g77
g58
NtRp2049
(dp2050
g61
(dp2051
sg70
g2045
sg63
(lp2052
g56
(g57
g58
NtRp2053
(dp2054
g61
(dp2055
g69
I3
ssg70
g2049
sg63
(lp2056
S'datetime.datetime(2011, 9, 26, 6, 55, 33)'
p2057
asbasbasbag56
(g72
g58
NtRp2058
(dp2059
g61
(dp2060
sg70
g2004
sg63
(lp2061
g56
(g77
g58
NtRp2062
(dp2063
g61
(dp2064
sg70
g2058
sg63
(lp2065
g56
(g57
g58
NtRp2066
(dp2067
g61
(dp2068
g69
I3
ssg70
g2062
sg63
(lp2069
S'stable'
p2070
asbasbasbasbasbasbasbag56
(g72
g58
NtRp2071
(dp2072
g61
(dp2073
sg70
g1191
sg63
(lp2074
g56
(g77
g58
NtRp2075
(dp2076
g61
(dp2077
g81
g82
ssg70
g2071
sg63
(lp2078
S'wsgi_errors'
p2079
asbag56
(g77
g58
NtRp2080
(dp2081
g61
(dp2082
g88
g89
ssg70
g2071
sg63
(lp2083
S':'
asbag56
(g77
g58
NtRp2084
(dp2085
g61
(dp2086
sg70
g2071
sg63
(lp2087
g56
(g57
g58
NtRp2088
(dp2089
g61
(dp2090
g69
I4
ssg70
g2084
sg63
(lp2091
S"<open file '<stderr>', mode 'w' at 0x7f2836a6d1e0>"
p2092
asbasbasbag56
(g72
g58
NtRp2093
(dp2094
g61
(dp2095
sg70
g1191
sg63
(lp2096
g56
(g77
g58
NtRp2097
(dp2098
g61
(dp2099
g81
g82
ssg70
g2093
sg63
(lp2100
S'wsgi_file_wrapper'
p2101
asbag56
(g77
g58
NtRp2102
(dp2103
g61
(dp2104
g88
g89
ssg70
g2093
sg63
(lp2105
S':'
asbag56
(g77
g58
NtRp2106
(dp2107
g61
(dp2108
sg70
g2093
sg63
(lp2109
g56
(g57
g58
NtRp2110
(dp2111
g61
(dp2112
g69
I4
ssg70
g2106
sg63
(lp2113
S'<class wsgiref.util.FileWrapper at 0x13897d0>'
p2114
asbasbasbag56
(g72
g58
NtRp2115
(dp2116
g61
(dp2117
sg70
g1191
sg63
(lp2118
g56
(g77
g58
NtRp2119
(dp2120
g61
(dp2121
g81
g82
ssg70
g2115
sg63
(lp2122
S'wsgi_input'
p2123
asbag56
(g77
g58
NtRp2124
(dp2125
g61
(dp2126
g88
g89
ssg70
g2115
sg63
(lp2127
S':'
asbag56
(g77
g58
NtRp2128
(dp2129
g61
(dp2130
sg70
g2115
sg63
(lp2131
g56
(g57
g58
NtRp2132
(dp2133
g61
(dp2134
g69
I4
ssg70
g2128
sg63
(lp2135
S'<socket._fileobject object at 0x1bb53d0>'
p2136
asbasbasbag56
(g72
g58
NtRp2137
(dp2138
g61
(dp2139
sg70
g1191
sg63
(lp2140
g56
(g77
g58
NtRp2141
(dp2142
g61
(dp2143
g81
g82
ssg70
g2137
sg63
(lp2144
S'wsgi_multiprocess'
p2145
asbag56
(g77
g58
NtRp2146
(dp2147
g61
(dp2148
g88
g89
ssg70
g2137
sg63
(lp2149
S':'
asbag56
(g77
g58
NtRp2150
(dp2151
g61
(dp2152
sg70
g2137
sg63
(lp2153
g56
(g57
g58
NtRp2154
(dp2155
g61
(dp2156
g69
I4
ssg70
g2150
sg63
(lp2157
g1373
asbasbasbag56
(g72
g58
NtRp2158
(dp2159
g61
(dp2160
sg70
g1191
sg63
(lp2161
g56
(g77
g58
NtRp2162
(dp2163
g61
(dp2164
g81
g82
ssg70
g2158
sg63
(lp2165
S'wsgi_multithread'
p2166
asbag56
(g77
g58
NtRp2167
(dp2168
g61
(dp2169
g88
g89
ssg70
g2158
sg63
(lp2170
S':'
asbag56
(g77
g58
NtRp2171
(dp2172
g61
(dp2173
sg70
g2158
sg63
(lp2174
g56
(g57
g58
NtRp2175
(dp2176
g61
(dp2177
g69
I4
ssg70
g2171
sg63
(lp2178
g99
asbasbasbag56
(g72
g58
NtRp2179
(dp2180
g61
(dp2181
sg70
g1191
sg63
(lp2182
g56
(g77
g58
NtRp2183
(dp2184
g61
(dp2185
g81
g82
ssg70
g2179
sg63
(lp2186
S'wsgi_run_once'
p2187
asbag56
(g77
g58
NtRp2188
(dp2189
g61
(dp2190
g88
g89
ssg70
g2179
sg63
(lp2191
S':'
asbag56
(g77
g58
NtRp2192
(dp2193
g61
(dp2194
sg70
g2179
sg63
(lp2195
g56
(g57
g58
NtRp2196
(dp2197
g61
(dp2198
g69
I4
ssg70
g2192
sg63
(lp2199
g1373
asbasbasbag56
(g72
g58
NtRp2200
(dp2201
g61
(dp2202
sg70
g1191
sg63
(lp2203
g56
(g77
g58
NtRp2204
(dp2205
g61
(dp2206
g81
g82
ssg70
g2200
sg63
(lp2207
S'wsgi_url_scheme'
p2208
asbag56
(g77
g58
NtRp2209
(dp2210
g61
(dp2211
g88
g89
ssg70
g2200
sg63
(lp2212
S':'
asbag56
(g77
g58
NtRp2213
(dp2214
g61
(dp2215
sg70
g2200
sg63
(lp2216
g56
(g57
g58
NtRp2217
(dp2218
g61
(dp2219
g69
I4
ssg70
g2213
sg63
(lp2220
S'http'
p2221
asbasbasbag56
(g72
g58
NtRp2222
(dp2223
g61
(dp2224
sg70
g1191
sg63
(lp2225
g56
(g77
g58
NtRp2226
(dp2227
g61
(dp2228
g81
g82
ssg70
g2222
sg63
(lp2229
S'wsgi_version'
p2230
asbag56
(g77
g58
NtRp2231
(dp2232
g61
(dp2233
g88
g89
ssg70
g2222
sg63
(lp2234
S':'
asbag56
(g77
g58
NtRp2235
(dp2236
g61
(dp2237
sg70
g2222
sg63
(lp2238
g56
(g57
g58
NtRp2239
(dp2240
g61
(dp2241
g69
I4
ssg70
g2235
sg63
(lp2242
g56
(g65
g58
NtRp2243
(dp2244
g61
(dp2245
g69
I3
ssg70
Nsg63
(lp2246
g56
(g72
g58
NtRp2247
(dp2248
g61
(dp2249
sg70
g2243
sg63
(lp2250
g56
(g77
g58
NtRp2251
(dp2252
g61
(dp2253
sg70
g2247
sg63
(lp2254
g56
(g57
g58
NtRp2255
(dp2256
g61
(dp2257
g69
I3
ssg70
g2251
sg63
(lp2258
S'1'
asbasbasbag56
(g72
g58
NtRp2259
(dp2260
g61
(dp2261
sg70
g2243
sg63
(lp2262
g56
(g77
g58
NtRp2263
(dp2264
g61
(dp2265
sg70
g2259
sg63
(lp2266
g56
(g57
g58
NtRp2267
(dp2268
g61
(dp2269
g69
I3
ssg70
g2263
sg63
(lp2270
S'0'
asbasbasbasbasbasbasbasbasbasbasbag56
(g72
g58
NtRp2271
(dp2272
g61
(dp2273
sg70
g66
sg63
(lp2274
g56
(g77
g58
NtRp2275
(dp2276
g61
(dp2277
g81
g82
ssg70
g2271
sg63
(lp2278
S'extension'
p2279
asbag56
(g77
g58
NtRp2280
(dp2281
g61
(dp2282
g88
g89
ssg70
g2271
sg63
(lp2283
S':'
asbag56
(g77
g58
NtRp2284
(dp2285
g61
(dp2286
sg70
g2271
sg63
(lp2287
g56
(g57
g58
NtRp2288
(dp2289
g61
(dp2290
g69
I5
ssg70
g2284
sg63
(lp2291
S'html'
p2292
asbasbasbag56
(g72
g58
NtRp2293
(dp2294
g61
(dp2295
sg70
g66
sg63
(lp2296
g56
(g77
g58
NtRp2297
(dp2298
g61
(dp2299
g81
g82
ssg70
g2293
sg63
(lp2300
S'folder'
p2301
asbag56
(g77
g58
NtRp2302
(dp2303
g61
(dp2304
g88
g89
ssg70
g2293
sg63
(lp2305
S':'
asbag56
(g77
g58
NtRp2306
(dp2307
g61
(dp2308
sg70
g2293
sg63
(lp2309
g56
(g57
g58
NtRp2310
(dp2311
g61
(dp2312
g69
I5
ssg70
g2306
sg63
(lp2313
S'/home/samu/projects/web2py_cms/web2py/applications/file_manager/'
p2314
asbasbasbag56
(g72
g58
NtRp2315
(dp2316
g61
(dp2317
sg70
g66
sg63
(lp2318
g56
(g77
g58
NtRp2319
(dp2320
g61
(dp2321
g81
g82
ssg70
g2315
sg63
(lp2322
S'function'
p2323
asbag56
(g77
g58
NtRp2324
(dp2325
g61
(dp2326
g88
g89
ssg70
g2315
sg63
(lp2327
S':'
asbag56
(g77
g58
NtRp2328
(dp2329
g61
(dp2330
sg70
g2315
sg63
(lp2331
g56
(g57
g58
NtRp2332
(dp2333
g61
(dp2334
g69
I5
ssg70
g2328
sg63
(lp2335
S'add'
p2336
asbasbasbag56
(g72
g58
NtRp2337
(dp2338
g61
(dp2339
sg70
g66
sg63
(lp2340
g56
(g77
g58
NtRp2341
(dp2342
g61
(dp2343
g81
g82
ssg70
g2337
sg63
(lp2344
S'get_vars'
p2345
asbag56
(g77
g58
NtRp2346
(dp2347
g61
(dp2348
g88
g89
ssg70
g2337
sg63
(lp2349
S':'
asbag56
(g77
g58
NtRp2350
(dp2351
g61
(dp2352
sg70
g2337
sg63
(lp2353
g56
(g57
g58
NtRp2354
(dp2355
g61
(dp2356
g69
I5
ssg70
g2350
sg63
(lp2357
g56
(g65
g58
NtRp2358
(dp2359
g61
(dp2360
g69
I4
ssg70
Nsg63
(lp2361
sbasbasbasbag56
(g72
g58
NtRp2362
(dp2363
g61
(dp2364
sg70
g66
sg63
(lp2365
g56
(g77
g58
NtRp2366
(dp2367
g61
(dp2368
g81
g82
ssg70
g2362
sg63
(lp2369
S'global_settings'
p2370
asbag56
(g77
g58
NtRp2371
(dp2372
g61
(dp2373
g88
g89
ssg70
g2362
sg63
(lp2374
S':'
asbag56
(g77
g58
NtRp2375
(dp2376
g61
(dp2377
sg70
g2362
sg63
(lp2378
g56
(g57
g58
NtRp2379
(dp2380
g61
(dp2381
g69
I5
ssg70
g2375
sg63
(lp2382
g56
(g65
g58
NtRp2383
(dp2384
g61
(dp2385
g69
I4
ssg70
Nsg63
(lp2386
g56
(g72
g58
NtRp2387
(dp2388
g61
(dp2389
sg70
g2383
sg63
(lp2390
g56
(g77
g58
NtRp2391
(dp2392
g61
(dp2393
g81
g82
ssg70
g2387
sg63
(lp2394
g1203
asbag56
(g77
g58
NtRp2395
(dp2396
g61
(dp2397
g88
g89
ssg70
g2387
sg63
(lp2398
S':'
asbag56
(g77
g58
NtRp2399
(dp2400
g61
(dp2401
sg70
g2387
sg63
(lp2402
g56
(g57
g58
NtRp2403
(dp2404
g61
(dp2405
g69
I4
ssg70
g2399
sg63
(lp2406
S"set(['/home/samu/projects/web2py_cms/web2py/applications/admin/', '/home/samu/projects/web2py_cms/web2py/applications/file_manager/', '/home/samu/projects/web2py_cms/web2py/applications/w2cms/'])"
p2407
asbasbasbag56
(g72
g58
NtRp2408
(dp2409
g61
(dp2410
sg70
g2383
sg63
(lp2411
g56
(g77
g58
NtRp2412
(dp2413
g61
(dp2414
g81
g82
ssg70
g2408
sg63
(lp2415
g1225
asbag56
(g77
g58
NtRp2416
(dp2417
g61
(dp2418
g88
g89
ssg70
g2408
sg63
(lp2419
S':'
asbag56
(g77
g58
NtRp2420
(dp2421
g61
(dp2422
sg70
g2408
sg63
(lp2423
g56
(g57
g58
NtRp2424
(dp2425
g61
(dp2426
g69
I4
ssg70
g2420
sg63
(lp2427
g1238
asbasbasbag56
(g72
g58
NtRp2428
(dp2429
g61
(dp2430
sg70
g2383
sg63
(lp2431
g56
(g77
g58
NtRp2432
(dp2433
g61
(dp2434
g81
g82
ssg70
g2428
sg63
(lp2435
g1247
asbag56
(g77
g58
NtRp2436
(dp2437
g61
(dp2438
g88
g89
ssg70
g2428
sg63
(lp2439
S':'
asbag56
(g77
g58
NtRp2440
(dp2441
g61
(dp2442
sg70
g2428
sg63
(lp2443
g56
(g57
g58
NtRp2444
(dp2445
g61
(dp2446
g69
I4
ssg70
g2440
sg63
(lp2447
g56
(g65
g58
NtRp2448
(dp2449
g61
(dp2450
g69
I3
ssg70
Nsg63
(lp2451
sbasbasbasbag56
(g72
g58
NtRp2452
(dp2453
g61
(dp2454
sg70
g2383
sg63
(lp2455
g56
(g77
g58
NtRp2456
(dp2457
g61
(dp2458
g81
g82
ssg70
g2452
sg63
(lp2459
g1272
asbag56
(g77
g58
NtRp2460
(dp2461
g61
(dp2462
g88
g89
ssg70
g2452
sg63
(lp2463
S':'
asbag56
(g77
g58
NtRp2464
(dp2465
g61
(dp2466
sg70
g2452
sg63
(lp2467
g56
(g57
g58
NtRp2468
(dp2469
g61
(dp2470
g69
I4
ssg70
g2464
sg63
(lp2471
S"<Values at 0x1495a70: {'verbose': False, 'ip': '127.0.0.1', 'shutdown_timeout': 5, 'taskbar': False, 'nocron': False, 'pid_filename': 'httpserver.pid', 'maxthreads': None, 'softcron': False, 'server_name': 'tr-is', 'bpython': False, 'nogui': False, 'port': 8000, 'extcron': False, 'debuglevel': 30, 'test': None, 'folder': '/home/samu/projects/web2py_cms/web2py', 'config': '', 'import_models': False, 'winservice': '', 'shell': None, 'run': '', 'log_filename': 'httpserver.log', 'args': [''], 'ssl_ca_certificate': None, 'scheduler': None, 'profiler_filename': None, 'ssl_private_key': '', 'password': 'pippo', 'request_queue_size': 5, 'ssl_certificate': '', 'cronjob': False, 'plain': False, 'quiet': False, 'interfaces': None, 'minthreads': None, 'timeout': 10, 'numthreads': None, 'nobanner': False}>"
p2472
asbasbasbag56
(g72
g58
NtRp2473
(dp2474
g61
(dp2475
sg70
g2383
sg63
(lp2476
g56
(g77
g58
NtRp2477
(dp2478
g61
(dp2479
g81
g82
ssg70
g2473
sg63
(lp2480
g1338
asbag56
(g77
g58
NtRp2481
(dp2482
g61
(dp2483
g88
g89
ssg70
g2473
sg63
(lp2484
S':'
asbag56
(g77
g58
NtRp2485
(dp2486
g61
(dp2487
sg70
g2473
sg63
(lp2488
g56
(g57
g58
NtRp2489
(dp2490
g61
(dp2491
g69
I4
ssg70
g2485
sg63
(lp2492
S'set([])'
p2493
asbasbasbag56
(g72
g58
NtRp2494
(dp2495
g61
(dp2496
sg70
g2383
sg63
(lp2497
g56
(g77
g58
NtRp2498
(dp2499
g61
(dp2500
g81
g82
ssg70
g2494
sg63
(lp2501
g1360
asbag56
(g77
g58
NtRp2502
(dp2503
g61
(dp2504
g88
g89
ssg70
g2494
sg63
(lp2505
S':'
asbag56
(g77
g58
NtRp2506
(dp2507
g61
(dp2508
sg70
g2494
sg63
(lp2509
g56
(g57
g58
NtRp2510
(dp2511
g61
(dp2512
g69
I4
ssg70
g2506
sg63
(lp2513
g1373
asbasbasbag56
(g72
g58
NtRp2514
(dp2515
g61
(dp2516
sg70
g2383
sg63
(lp2517
g56
(g77
g58
NtRp2518
(dp2519
g61
(dp2520
g81
g82
ssg70
g2514
sg63
(lp2521
g1382
asbag56
(g77
g58
NtRp2522
(dp2523
g61
(dp2524
g88
g89
ssg70
g2514
sg63
(lp2525
S':'
asbag56
(g77
g58
NtRp2526
(dp2527
g61
(dp2528
sg70
g2514
sg63
(lp2529
g56
(g57
g58
NtRp2530
(dp2531
g61
(dp2532
g69
I4
ssg70
g2526
sg63
(lp2533
g1395
asbasbasbag56
(g72
g58
NtRp2534
(dp2535
g61
(dp2536
sg70
g2383
sg63
(lp2537
g56
(g77
g58
NtRp2538
(dp2539
g61
(dp2540
g81
g82
ssg70
g2534
sg63
(lp2541
g1710
asbag56
(g77
g58
NtRp2542
(dp2543
g61
(dp2544
g88
g89
ssg70
g2534
sg63
(lp2545
S':'
asbag56
(g77
g58
NtRp2546
(dp2547
g61
(dp2548
sg70
g2534
sg63
(lp2549
g56
(g57
g58
NtRp2550
(dp2551
g61
(dp2552
g69
I4
ssg70
g2546
sg63
(lp2553
g1373
asbasbasbag56
(g72
g58
NtRp2554
(dp2555
g61
(dp2556
sg70
g2383
sg63
(lp2557
g56
(g77
g58
NtRp2558
(dp2559
g61
(dp2560
g81
g82
ssg70
g2554
sg63
(lp2561
g1948
asbag56
(g77
g58
NtRp2562
(dp2563
g61
(dp2564
g88
g89
ssg70
g2554
sg63
(lp2565
S':'
asbag56
(g77
g58
NtRp2566
(dp2567
g61
(dp2568
sg70
g2554
sg63
(lp2569
g56
(g57
g58
NtRp2570
(dp2571
g61
(dp2572
g69
I4
ssg70
g2566
sg63
(lp2573
g1961
asbasbasbag56
(g72
g58
NtRp2574
(dp2575
g61
(dp2576
sg70
g2383
sg63
(lp2577
g56
(g77
g58
NtRp2578
(dp2579
g61
(dp2580
g81
g82
ssg70
g2574
sg63
(lp2581
g1991
asbag56
(g77
g58
NtRp2582
(dp2583
g61
(dp2584
g88
g89
ssg70
g2574
sg63
(lp2585
S':'
asbag56
(g77
g58
NtRp2586
(dp2587
g61
(dp2588
sg70
g2574
sg63
(lp2589
g56
(g57
g58
NtRp2590
(dp2591
g61
(dp2592
g69
I4
ssg70
g2586
sg63
(lp2593
g56
(g65
g58
NtRp2594
(dp2595
g61
(dp2596
g69
I3
ssg70
Nsg63
(lp2597
g56
(g72
g58
NtRp2598
(dp2599
g61
(dp2600
sg70
g2594
sg63
(lp2601
g56
(g77
g58
NtRp2602
(dp2603
g61
(dp2604
sg70
g2598
sg63
(lp2605
g56
(g57
g58
NtRp2606
(dp2607
g61
(dp2608
g69
I3
ssg70
g2602
sg63
(lp2609
S'1'
asbasbasbag56
(g72
g58
NtRp2610
(dp2611
g61
(dp2612
sg70
g2594
sg63
(lp2613
g56
(g77
g58
NtRp2614
(dp2615
g61
(dp2616
sg70
g2610
sg63
(lp2617
g56
(g57
g58
NtRp2618
(dp2619
g61
(dp2620
g69
I3
ssg70
g2614
sg63
(lp2621
S'99'
p2622
asbasbasbag56
(g72
g58
NtRp2623
(dp2624
g61
(dp2625
sg70
g2594
sg63
(lp2626
g56
(g77
g58
NtRp2627
(dp2628
g61
(dp2629
sg70
g2623
sg63
(lp2630
g56
(g57
g58
NtRp2631
(dp2632
g61
(dp2633
g69
I3
ssg70
g2627
sg63
(lp2634
S'2'
asbasbasbag56
(g72
g58
NtRp2635
(dp2636
g61
(dp2637
sg70
g2594
sg63
(lp2638
g56
(g77
g58
NtRp2639
(dp2640
g61
(dp2641
sg70
g2635
sg63
(lp2642
g56
(g57
g58
NtRp2643
(dp2644
g61
(dp2645
g69
I3
ssg70
g2639
sg63
(lp2646
S'datetime.datetime(2011, 9, 26, 6, 55, 33)'
p2647
asbasbasbag56
(g72
g58
NtRp2648
(dp2649
g61
(dp2650
sg70
g2594
sg63
(lp2651
g56
(g77
g58
NtRp2652
(dp2653
g61
(dp2654
sg70
g2648
sg63
(lp2655
g56
(g57
g58
NtRp2656
(dp2657
g61
(dp2658
g69
I3
ssg70
g2652
sg63
(lp2659
g2070
asbasbasbasbasbasbasbasbasbasbasbag56
(g72
g58
NtRp2660
(dp2661
g61
(dp2662
sg70
g66
sg63
(lp2663
g56
(g77
g58
NtRp2664
(dp2665
g61
(dp2666
g81
g82
ssg70
g2660
sg63
(lp2667
S'is_https'
p2668
asbag56
(g77
g58
NtRp2669
(dp2670
g61
(dp2671
g88
g89
ssg70
g2660
sg63
(lp2672
S':'
asbag56
(g77
g58
NtRp2673
(dp2674
g61
(dp2675
sg70
g2660
sg63
(lp2676
g56
(g57
g58
NtRp2677
(dp2678
g61
(dp2679
g69
I5
ssg70
g2673
sg63
(lp2680
g1373
asbasbasbag56
(g72
g58
NtRp2681
(dp2682
g61
(dp2683
sg70
g66
sg63
(lp2684
g56
(g77
g58
NtRp2685
(dp2686
g61
(dp2687
g81
g82
ssg70
g2681
sg63
(lp2688
S'is_local'
p2689
asbag56
(g77
g58
NtRp2690
(dp2691
g61
(dp2692
g88
g89
ssg70
g2681
sg63
(lp2693
S':'
asbag56
(g77
g58
NtRp2694
(dp2695
g61
(dp2696
sg70
g2681
sg63
(lp2697
g56
(g57
g58
NtRp2698
(dp2699
g61
(dp2700
g69
I5
ssg70
g2694
sg63
(lp2701
g99
asbasbasbag56
(g72
g58
NtRp2702
(dp2703
g61
(dp2704
sg70
g66
sg63
(lp2705
g56
(g77
g58
NtRp2706
(dp2707
g61
(dp2708
g81
g82
ssg70
g2702
sg63
(lp2709
S'is_restful'
p2710
asbag56
(g77
g58
NtRp2711
(dp2712
g61
(dp2713
g88
g89
ssg70
g2702
sg63
(lp2714
S':'
asbag56
(g77
g58
NtRp2715
(dp2716
g61
(dp2717
sg70
g2702
sg63
(lp2718
g56
(g57
g58
NtRp2719
(dp2720
g61
(dp2721
g69
I5
ssg70
g2715
sg63
(lp2722
g1373
asbasbasbag56
(g72
g58
NtRp2723
(dp2724
g61
(dp2725
sg70
g66
sg63
(lp2726
g56
(g77
g58
NtRp2727
(dp2728
g61
(dp2729
g81
g82
ssg70
g2723
sg63
(lp2730
S'now'
p2731
asbag56
(g77
g58
NtRp2732
(dp2733
g61
(dp2734
g88
g89
ssg70
g2723
sg63
(lp2735
S':'
asbag56
(g77
g58
NtRp2736
(dp2737
g61
(dp2738
sg70
g2723
sg63
(lp2739
g56
(g57
g58
NtRp2740
(dp2741
g61
(dp2742
g69
I5
ssg70
g2736
sg63
(lp2743
S'datetime.datetime(2011, 11, 7, 7, 56, 0, 287197)'
p2744
asbasbasbag56
(g72
g58
NtRp2745
(dp2746
g61
(dp2747
sg70
g66
sg63
(lp2748
g56
(g77
g58
NtRp2749
(dp2750
g61
(dp2751
g81
g82
ssg70
g2745
sg63
(lp2752
S'post_vars'
p2753
asbag56
(g77
g58
NtRp2754
(dp2755
g61
(dp2756
g88
g89
ssg70
g2745
sg63
(lp2757
S':'
asbag56
(g77
g58
NtRp2758
(dp2759
g61
(dp2760
sg70
g2745
sg63
(lp2761
g56
(g57
g58
NtRp2762
(dp2763
g61
(dp2764
g69
I5
ssg70
g2758
sg63
(lp2765
g56
(g65
g58
NtRp2766
(dp2767
g61
(dp2768
g69
I4
ssg70
Nsg63
(lp2769
g56
(g72
g58
NtRp2770
(dp2771
g61
(dp2772
sg70
g2766
sg63
(lp2773
g56
(g77
g58
NtRp2774
(dp2775
g61
(dp2776
g81
g82
ssg70
g2770
sg63
(lp2777
S'currentpath'
p2778
asbag56
(g77
g58
NtRp2779
(dp2780
g61
(dp2781
g88
g89
ssg70
g2770
sg63
(lp2782
S':'
asbag56
(g77
g58
NtRp2783
(dp2784
g61
(dp2785
sg70
g2770
sg63
(lp2786
g56
(g57
g58
NtRp2787
(dp2788
g61
(dp2789
g69
I4
ssg70
g2783
sg63
(lp2790
S'/Documents/'
p2791
asbasbasbag56
(g72
g58
NtRp2792
(dp2793
g61
(dp2794
sg70
g2766
sg63
(lp2795
g56
(g77
g58
NtRp2796
(dp2797
g61
(dp2798
g81
g82
ssg70
g2792
sg63
(lp2799
S'file'
p2800
asbag56
(g77
g58
NtRp2801
(dp2802
g61
(dp2803
g88
g89
ssg70
g2792
sg63
(lp2804
S':'
asbag56
(g77
g58
NtRp2805
(dp2806
g61
(dp2807
sg70
g2792
sg63
(lp2808
g56
(g57
g58
NtRp2809
(dp2810
g61
(dp2811
g69
I4
ssg70
g2805
sg63
(lp2812
S''
asbasbasbag56
(g72
g58
NtRp2813
(dp2814
g61
(dp2815
sg70
g2766
sg63
(lp2816
g56
(g77
g58
NtRp2817
(dp2818
g61
(dp2819
g81
g82
ssg70
g2813
sg63
(lp2820
S'mode'
p2821
asbag56
(g77
g58
NtRp2822
(dp2823
g61
(dp2824
g88
g89
ssg70
g2813
sg63
(lp2825
S':'
asbag56
(g77
g58
NtRp2826
(dp2827
g61
(dp2828
sg70
g2813
sg63
(lp2829
g56
(g57
g58
NtRp2830
(dp2831
g61
(dp2832
g69
I4
ssg70
g2826
sg63
(lp2833
S'add'
p2834
asbasbasbag56
(g72
g58
NtRp2835
(dp2836
g61
(dp2837
sg70
g2766
sg63
(lp2838
g56
(g77
g58
NtRp2839
(dp2840
g61
(dp2841
g81
g82
ssg70
g2835
sg63
(lp2842
S'upload'
p2843
asbag56
(g77
g58
NtRp2844
(dp2845
g61
(dp2846
g88
g89
ssg70
g2835
sg63
(lp2847
S':'
asbag56
(g77
g58
NtRp2848
(dp2849
g61
(dp2850
sg70
g2835
sg63
(lp2851
g56
(g57
g58
NtRp2852
(dp2853
g61
(dp2854
g69
I4
ssg70
g2848
sg63
(lp2855
S'Upload'
p2856
asbasbasbasbasbasbasbag56
(g72
g58
NtRp2857
(dp2858
g61
(dp2859
sg70
g66
sg63
(lp2860
g56
(g77
g58
NtRp2861
(dp2862
g61
(dp2863
g81
g82
ssg70
g2857
sg63
(lp2864
S'url'
p2865
asbag56
(g77
g58
NtRp2866
(dp2867
g61
(dp2868
g88
g89
ssg70
g2857
sg63
(lp2869
S':'
asbag56
(g77
g58
NtRp2870
(dp2871
g61
(dp2872
sg70
g2857
sg63
(lp2873
g56
(g57
g58
NtRp2874
(dp2875
g61
(dp2876
g69
I5
ssg70
g2870
sg63
(lp2877
S'/file_manager/default/add'
p2878
asbasbasbag56
(g72
g58
NtRp2879
(dp2880
g61
(dp2881
sg70
g66
sg63
(lp2882
g56
(g77
g58
NtRp2883
(dp2884
g61
(dp2885
g81
g82
ssg70
g2879
sg63
(lp2886
S'utcnow'
p2887
asbag56
(g77
g58
NtRp2888
(dp2889
g61
(dp2890
g88
g89
ssg70
g2879
sg63
(lp2891
S':'
asbag56
(g77
g58
NtRp2892
(dp2893
g61
(dp2894
sg70
g2879
sg63
(lp2895
g56
(g57
g58
NtRp2896
(dp2897
g61
(dp2898
g69
I5
ssg70
g2892
sg63
(lp2899
S'datetime.datetime(2011, 11, 7, 6, 56, 0, 287215)'
p2900
asbasbasbag56
(g72
g58
NtRp2901
(dp2902
g61
(dp2903
sg70
g66
sg63
(lp2904
g56
(g77
g58
NtRp2905
(dp2906
g61
(dp2907
g81
g82
ssg70
g2901
sg63
(lp2908
S'uuid'
p2909
asbag56
(g77
g58
NtRp2910
(dp2911
g61
(dp2912
g88
g89
ssg70
g2901
sg63
(lp2913
S':'
asbag56
(g77
g58
NtRp2914
(dp2915
g61
(dp2916
sg70
g2901
sg63
(lp2917
g56
(g57
g58
NtRp2918
(dp2919
g61
(dp2920
g69
I5
ssg70
g2914
sg63
(lp2921
S'file_manager/127.0.0.1.2011-11-07.07-56-00.9d63e21a-9af5-41ff-a7a4-3e3378fa94c2'
p2922
asbasbasbag56
(g72
g58
NtRp2923
(dp2924
g61
(dp2925
sg70
g66
sg63
(lp2926
g56
(g77
g58
NtRp2927
(dp2928
g61
(dp2929
g81
g82
ssg70
g2923
sg63
(lp2930
S'vars'
p2931
asbag56
(g77
g58
NtRp2932
(dp2933
g61
(dp2934
g88
g89
ssg70
g2923
sg63
(lp2935
S':'
asbag56
(g77
g58
NtRp2936
(dp2937
g61
(dp2938
sg70
g2923
sg63
(lp2939
g56
(g57
g58
NtRp2940
(dp2941
g61
(dp2942
g69
I5
ssg70
g2936
sg63
(lp2943
g56
(g65
g58
NtRp2944
(dp2945
g61
(dp2946
g69
I4
ssg70
Nsg63
(lp2947
g56
(g72
g58
NtRp2948
(dp2949
g61
(dp2950
sg70
g2944
sg63
(lp2951
g56
(g77
g58
NtRp2952
(dp2953
g61
(dp2954
g81
g82
ssg70
g2948
sg63
(lp2955
g2778
asbag56
(g77
g58
NtRp2956
(dp2957
g61
(dp2958
g88
g89
ssg70
g2948
sg63
(lp2959
S':'
asbag56
(g77
g58
NtRp2960
(dp2961
g61
(dp2962
sg70
g2948
sg63
(lp2963
g56
(g57
g58
NtRp2964
(dp2965
g61
(dp2966
g69
I4
ssg70
g2960
sg63
(lp2967
g2791
asbasbasbag56
(g72
g58
NtRp2968
(dp2969
g61
(dp2970
sg70
g2944
sg63
(lp2971
g56
(g77
g58
NtRp2972
(dp2973
g61
(dp2974
g81
g82
ssg70
g2968
sg63
(lp2975
g2800
asbag56
(g77
g58
NtRp2976
(dp2977
g61
(dp2978
g88
g89
ssg70
g2968
sg63
(lp2979
S':'
asbag56
(g77
g58
NtRp2980
(dp2981
g61
(dp2982
sg70
g2968
sg63
(lp2983
g56
(g57
g58
NtRp2984
(dp2985
g61
(dp2986
g69
I4
ssg70
g2980
sg63
(lp2987
S''
asbasbasbag56
(g72
g58
NtRp2988
(dp2989
g61
(dp2990
sg70
g2944
sg63
(lp2991
g56
(g77
g58
NtRp2992
(dp2993
g61
(dp2994
g81
g82
ssg70
g2988
sg63
(lp2995
g2821
asbag56
(g77
g58
NtRp2996
(dp2997
g61
(dp2998
g88
g89
ssg70
g2988
sg63
(lp2999
S':'
asbag56
(g77
g58
NtRp3000
(dp3001
g61
(dp3002
sg70
g2988
sg63
(lp3003
g56
(g57
g58
NtRp3004
(dp3005
g61
(dp3006
g69
I4
ssg70
g3000
sg63
(lp3007
g2834
asbasbasbag56
(g72
g58
NtRp3008
(dp3009
g61
(dp3010
sg70
g2944
sg63
(lp3011
g56
(g77
g58
NtRp3012
(dp3013
g61
(dp3014
g81
g82
ssg70
g3008
sg63
(lp3015
g2843
asbag56
(g77
g58
NtRp3016
(dp3017
g61
(dp3018
g88
g89
ssg70
g3008
sg63
(lp3019
S':'
asbag56
(g77
g58
NtRp3020
(dp3021
g61
(dp3022
sg70
g3008
sg63
(lp3023
g56
(g57
g58
NtRp3024
(dp3025
g61
(dp3026
g69
I4
ssg70
g3020
sg63
(lp3027
g2856
asbasbasbasbasbasbasbag56
(g72
g58
NtRp3028
(dp3029
g61
(dp3030
sg70
g66
sg63
(lp3031
g56
(g77
g58
NtRp3032
(dp3033
g61
(dp3034
g81
g82
ssg70
g3028
sg63
(lp3035
S'wsgi'
p3036
asbag56
(g77
g58
NtRp3037
(dp3038
g61
(dp3039
g88
g89
ssg70
g3028
sg63
(lp3040
S':'
asbag56
(g77
g58
NtRp3041
(dp3042
g61
(dp3043
sg70
g3028
sg63
(lp3044
g56
(g57
g58
NtRp3045
(dp3046
g61
(dp3047
g69
I5
ssg70
g3041
sg63
(lp3048
g56
(g65
g58
NtRp3049
(dp3050
g61
(dp3051
g69
I4
ssg70
Nsg63
(lp3052
g56
(g72
g58
NtRp3053
(dp3054
g61
(dp3055
sg70
g3049
sg63
(lp3056
g56
(g77
g58
NtRp3057
(dp3058
g61
(dp3059
g81
g82
ssg70
g3053
sg63
(lp3060
S'environ'
p3061
asbag56
(g77
g58
NtRp3062
(dp3063
g61
(dp3064
g88
g89
ssg70
g3053
sg63
(lp3065
S':'
asbag56
(g77
g58
NtRp3066
(dp3067
g61
(dp3068
sg70
g3053
sg63
(lp3069
g56
(g57
g58
NtRp3070
(dp3071
g61
(dp3072
g69
I4
ssg70
g3066
sg63
(lp3073
g56
(g65
g58
NtRp3074
(dp3075
g61
(dp3076
g69
I3
ssg70
Nsg63
(lp3077
g56
(g72
g58
NtRp3078
(dp3079
g61
(dp3080
sg70
g3074
sg63
(lp3081
g56
(g77
g58
NtRp3082
(dp3083
g61
(dp3084
g81
g82
ssg70
g3078
sg63
(lp3085
S'CONTENT_LENGTH'
p3086
asbag56
(g77
g58
NtRp3087
(dp3088
g61
(dp3089
g88
g89
ssg70
g3078
sg63
(lp3090
S':'
asbag56
(g77
g58
NtRp3091
(dp3092
g61
(dp3093
sg70
g3078
sg63
(lp3094
g56
(g57
g58
NtRp3095
(dp3096
g61
(dp3097
g69
I3
ssg70
g3091
sg63
(lp3098
g1307
asbasbasbag56
(g72
g58
NtRp3099
(dp3100
g61
(dp3101
sg70
g3074
sg63
(lp3102
g56
(g77
g58
NtRp3103
(dp3104
g61
(dp3105
g81
g82
ssg70
g3099
sg63
(lp3106
S'CONTENT_TYPE'
p3107
asbag56
(g77
g58
NtRp3108
(dp3109
g61
(dp3110
g88
g89
ssg70
g3099
sg63
(lp3111
S':'
asbag56
(g77
g58
NtRp3112
(dp3113
g61
(dp3114
sg70
g3099
sg63
(lp3115
g56
(g57
g58
NtRp3116
(dp3117
g61
(dp3118
g69
I3
ssg70
g3112
sg63
(lp3119
g1329
asbasbasbag56
(g72
g58
NtRp3120
(dp3121
g61
(dp3122
sg70
g3074
sg63
(lp3123
g56
(g77
g58
NtRp3124
(dp3125
g61
(dp3126
g81
g82
ssg70
g3120
sg63
(lp3127
S'HTTP_ACCEPT'
p3128
asbag56
(g77
g58
NtRp3129
(dp3130
g61
(dp3131
g88
g89
ssg70
g3120
sg63
(lp3132
S':'
asbag56
(g77
g58
NtRp3133
(dp3134
g61
(dp3135
sg70
g3120
sg63
(lp3136
g56
(g57
g58
NtRp3137
(dp3138
g61
(dp3139
g69
I3
ssg70
g3133
sg63
(lp3140
g1417
asbasbasbag56
(g72
g58
NtRp3141
(dp3142
g61
(dp3143
sg70
g3074
sg63
(lp3144
g56
(g77
g58
NtRp3145
(dp3146
g61
(dp3147
g81
g82
ssg70
g3141
sg63
(lp3148
S'HTTP_ACCEPT_CHARSET'
p3149
asbag56
(g77
g58
NtRp3150
(dp3151
g61
(dp3152
g88
g89
ssg70
g3141
sg63
(lp3153
S':'
asbag56
(g77
g58
NtRp3154
(dp3155
g61
(dp3156
sg70
g3141
sg63
(lp3157
g56
(g57
g58
NtRp3158
(dp3159
g61
(dp3160
g69
I3
ssg70
g3154
sg63
(lp3161
g1439
asbasbasbag56
(g72
g58
NtRp3162
(dp3163
g61
(dp3164
sg70
g3074
sg63
(lp3165
g56
(g77
g58
NtRp3166
(dp3167
g61
(dp3168
g81
g82
ssg70
g3162
sg63
(lp3169
S'HTTP_ACCEPT_ENCODING'
p3170
asbag56
(g77
g58
NtRp3171
(dp3172
g61
(dp3173
g88
g89
ssg70
g3162
sg63
(lp3174
S':'
asbag56
(g77
g58
NtRp3175
(dp3176
g61
(dp3177
sg70
g3162
sg63
(lp3178
g56
(g57
g58
NtRp3179
(dp3180
g61
(dp3181
g69
I3
ssg70
g3175
sg63
(lp3182
g1461
asbasbasbag56
(g72
g58
NtRp3183
(dp3184
g61
(dp3185
sg70
g3074
sg63
(lp3186
g56
(g77
g58
NtRp3187
(dp3188
g61
(dp3189
g81
g82
ssg70
g3183
sg63
(lp3190
S'HTTP_ACCEPT_LANGUAGE'
p3191
asbag56
(g77
g58
NtRp3192
(dp3193
g61
(dp3194
g88
g89
ssg70
g3183
sg63
(lp3195
S':'
asbag56
(g77
g58
NtRp3196
(dp3197
g61
(dp3198
sg70
g3183
sg63
(lp3199
g56
(g57
g58
NtRp3200
(dp3201
g61
(dp3202
g69
I3
ssg70
g3196
sg63
(lp3203
g1483
asbasbasbag56
(g72
g58
NtRp3204
(dp3205
g61
(dp3206
sg70
g3074
sg63
(lp3207
g56
(g77
g58
NtRp3208
(dp3209
g61
(dp3210
g81
g82
ssg70
g3204
sg63
(lp3211
S'HTTP_CACHE_CONTROL'
p3212
asbag56
(g77
g58
NtRp3213
(dp3214
g61
(dp3215
g88
g89
ssg70
g3204
sg63
(lp3216
S':'
asbag56
(g77
g58
NtRp3217
(dp3218
g61
(dp3219
sg70
g3204
sg63
(lp3220
g56
(g57
g58
NtRp3221
(dp3222
g61
(dp3223
g69
I3
ssg70
g3217
sg63
(lp3224
g1505
asbasbasbag56
(g72
g58
NtRp3225
(dp3226
g61
(dp3227
sg70
g3074
sg63
(lp3228
g56
(g77
g58
NtRp3229
(dp3230
g61
(dp3231
g81
g82
ssg70
g3225
sg63
(lp3232
S'HTTP_CONNECTION'
p3233
asbag56
(g77
g58
NtRp3234
(dp3235
g61
(dp3236
g88
g89
ssg70
g3225
sg63
(lp3237
S':'
asbag56
(g77
g58
NtRp3238
(dp3239
g61
(dp3240
sg70
g3225
sg63
(lp3241
g56
(g57
g58
NtRp3242
(dp3243
g61
(dp3244
g69
I3
ssg70
g3238
sg63
(lp3245
g1527
asbasbasbag56
(g72
g58
NtRp3246
(dp3247
g61
(dp3248
sg70
g3074
sg63
(lp3249
g56
(g77
g58
NtRp3250
(dp3251
g61
(dp3252
g81
g82
ssg70
g3246
sg63
(lp3253
S'HTTP_CONTENT_LENGTH'
p3254
asbag56
(g77
g58
NtRp3255
(dp3256
g61
(dp3257
g88
g89
ssg70
g3246
sg63
(lp3258
S':'
asbag56
(g77
g58
NtRp3259
(dp3260
g61
(dp3261
sg70
g3246
sg63
(lp3262
g56
(g57
g58
NtRp3263
(dp3264
g61
(dp3265
g69
I3
ssg70
g3259
sg63
(lp3266
g1307
asbasbasbag56
(g72
g58
NtRp3267
(dp3268
g61
(dp3269
sg70
g3074
sg63
(lp3270
g56
(g77
g58
NtRp3271
(dp3272
g61
(dp3273
g81
g82
ssg70
g3267
sg63
(lp3274
S'HTTP_CONTENT_TYPE'
p3275
asbag56
(g77
g58
NtRp3276
(dp3277
g61
(dp3278
g88
g89
ssg70
g3267
sg63
(lp3279
S':'
asbag56
(g77
g58
NtRp3280
(dp3281
g61
(dp3282
sg70
g3267
sg63
(lp3283
g56
(g57
g58
NtRp3284
(dp3285
g61
(dp3286
g69
I3
ssg70
g3280
sg63
(lp3287
g1329
asbasbasbag56
(g72
g58
NtRp3288
(dp3289
g61
(dp3290
sg70
g3074
sg63
(lp3291
g56
(g77
g58
NtRp3292
(dp3293
g61
(dp3294
g81
g82
ssg70
g3288
sg63
(lp3295
S'HTTP_COOKIE'
p3296
asbag56
(g77
g58
NtRp3297
(dp3298
g61
(dp3299
g88
g89
ssg70
g3288
sg63
(lp3300
S':'
asbag56
(g77
g58
NtRp3301
(dp3302
g61
(dp3303
sg70
g3288
sg63
(lp3304
g56
(g57
g58
NtRp3305
(dp3306
g61
(dp3307
g69
I3
ssg70
g3301
sg63
(lp3308
g1591
asbasbasbag56
(g72
g58
NtRp3309
(dp3310
g61
(dp3311
sg70
g3074
sg63
(lp3312
g56
(g77
g58
NtRp3313
(dp3314
g61
(dp3315
g81
g82
ssg70
g3309
sg63
(lp3316
S'HTTP_HOST'
p3317
asbag56
(g77
g58
NtRp3318
(dp3319
g61
(dp3320
g88
g89
ssg70
g3309
sg63
(lp3321
S':'
asbag56
(g77
g58
NtRp3322
(dp3323
g61
(dp3324
sg70
g3309
sg63
(lp3325
g56
(g57
g58
NtRp3326
(dp3327
g61
(dp3328
g69
I3
ssg70
g3322
sg63
(lp3329
g1613
asbasbasbag56
(g72
g58
NtRp3330
(dp3331
g61
(dp3332
sg70
g3074
sg63
(lp3333
g56
(g77
g58
NtRp3334
(dp3335
g61
(dp3336
g81
g82
ssg70
g3330
sg63
(lp3337
S'HTTP_PRAGMA'
p3338
asbag56
(g77
g58
NtRp3339
(dp3340
g61
(dp3341
g88
g89
ssg70
g3330
sg63
(lp3342
S':'
asbag56
(g77
g58
NtRp3343
(dp3344
g61
(dp3345
sg70
g3330
sg63
(lp3346
g56
(g57
g58
NtRp3347
(dp3348
g61
(dp3349
g69
I3
ssg70
g3343
sg63
(lp3350
g1635
asbasbasbag56
(g72
g58
NtRp3351
(dp3352
g61
(dp3353
sg70
g3074
sg63
(lp3354
g56
(g77
g58
NtRp3355
(dp3356
g61
(dp3357
g81
g82
ssg70
g3351
sg63
(lp3358
S'HTTP_REFERER'
p3359
asbag56
(g77
g58
NtRp3360
(dp3361
g61
(dp3362
g88
g89
ssg70
g3351
sg63
(lp3363
S':'
asbag56
(g77
g58
NtRp3364
(dp3365
g61
(dp3366
sg70
g3351
sg63
(lp3367
g56
(g57
g58
NtRp3368
(dp3369
g61
(dp3370
g69
I3
ssg70
g3364
sg63
(lp3371
g1657
asbasbasbag56
(g72
g58
NtRp3372
(dp3373
g61
(dp3374
sg70
g3074
sg63
(lp3375
g56
(g77
g58
NtRp3376
(dp3377
g61
(dp3378
g81
g82
ssg70
g3372
sg63
(lp3379
S'HTTP_USER_AGENT'
p3380
asbag56
(g77
g58
NtRp3381
(dp3382
g61
(dp3383
g88
g89
ssg70
g3372
sg63
(lp3384
S':'
asbag56
(g77
g58
NtRp3385
(dp3386
g61
(dp3387
sg70
g3372
sg63
(lp3388
g56
(g57
g58
NtRp3389
(dp3390
g61
(dp3391
g69
I3
ssg70
g3385
sg63
(lp3392
g1679
asbasbasbag56
(g72
g58
NtRp3393
(dp3394
g61
(dp3395
sg70
g3074
sg63
(lp3396
g56
(g77
g58
NtRp3397
(dp3398
g61
(dp3399
g81
g82
ssg70
g3393
sg63
(lp3400
S'HTTP_X_REQUESTED_WITH'
p3401
asbag56
(g77
g58
NtRp3402
(dp3403
g61
(dp3404
g88
g89
ssg70
g3393
sg63
(lp3405
S':'
asbag56
(g77
g58
NtRp3406
(dp3407
g61
(dp3408
sg70
g3393
sg63
(lp3409
g56
(g57
g58
NtRp3410
(dp3411
g61
(dp3412
g69
I3
ssg70
g3406
sg63
(lp3413
g1701
asbasbasbag56
(g72
g58
NtRp3414
(dp3415
g61
(dp3416
sg70
g3074
sg63
(lp3417
g56
(g77
g58
NtRp3418
(dp3419
g61
(dp3420
g81
g82
ssg70
g3414
sg63
(lp3421
S'PATH_INFO'
p3422
asbag56
(g77
g58
NtRp3423
(dp3424
g61
(dp3425
g88
g89
ssg70
g3414
sg63
(lp3426
S':'
asbag56
(g77
g58
NtRp3427
(dp3428
g61
(dp3429
sg70
g3414
sg63
(lp3430
g56
(g57
g58
NtRp3431
(dp3432
g61
(dp3433
g69
I3
ssg70
g3427
sg63
(lp3434
g1744
asbasbasbag56
(g72
g58
NtRp3435
(dp3436
g61
(dp3437
sg70
g3074
sg63
(lp3438
g56
(g77
g58
NtRp3439
(dp3440
g61
(dp3441
g81
g82
ssg70
g3435
sg63
(lp3442
S'QUERY_STRING'
p3443
asbag56
(g77
g58
NtRp3444
(dp3445
g61
(dp3446
g88
g89
ssg70
g3435
sg63
(lp3447
S':'
asbag56
(g77
g58
NtRp3448
(dp3449
g61
(dp3450
sg70
g3435
sg63
(lp3451
g56
(g57
g58
NtRp3452
(dp3453
g61
(dp3454
g69
I3
ssg70
g3448
sg63
(lp3455
S''
asbasbasbag56
(g72
g58
NtRp3456
(dp3457
g61
(dp3458
sg70
g3074
sg63
(lp3459
g56
(g77
g58
NtRp3460
(dp3461
g61
(dp3462
g81
g82
ssg70
g3456
sg63
(lp3463
S'REMOTE_ADDR'
p3464
asbag56
(g77
g58
NtRp3465
(dp3466
g61
(dp3467
g88
g89
ssg70
g3456
sg63
(lp3468
S':'
asbag56
(g77
g58
NtRp3469
(dp3470
g61
(dp3471
sg70
g3456
sg63
(lp3472
g56
(g57
g58
NtRp3473
(dp3474
g61
(dp3475
g69
I3
ssg70
g3469
sg63
(lp3476
g189
asbasbasbag56
(g72
g58
NtRp3477
(dp3478
g61
(dp3479
sg70
g3074
sg63
(lp3480
g56
(g77
g58
NtRp3481
(dp3482
g61
(dp3483
g81
g82
ssg70
g3477
sg63
(lp3484
S'REMOTE_PORT'
p3485
asbag56
(g77
g58
NtRp3486
(dp3487
g61
(dp3488
g88
g89
ssg70
g3477
sg63
(lp3489
S':'
asbag56
(g77
g58
NtRp3490
(dp3491
g61
(dp3492
sg70
g3477
sg63
(lp3493
g56
(g57
g58
NtRp3494
(dp3495
g61
(dp3496
g69
I3
ssg70
g3490
sg63
(lp3497
g1808
asbasbasbag56
(g72
g58
NtRp3498
(dp3499
g61
(dp3500
sg70
g3074
sg63
(lp3501
g56
(g77
g58
NtRp3502
(dp3503
g61
(dp3504
g81
g82
ssg70
g3498
sg63
(lp3505
S'REQUEST_METHOD'
p3506
asbag56
(g77
g58
NtRp3507
(dp3508
g61
(dp3509
g88
g89
ssg70
g3498
sg63
(lp3510
S':'
asbag56
(g77
g58
NtRp3511
(dp3512
g61
(dp3513
sg70
g3498
sg63
(lp3514
g56
(g57
g58
NtRp3515
(dp3516
g61
(dp3517
g69
I3
ssg70
g3511
sg63
(lp3518
g1830
asbasbasbag56
(g72
g58
NtRp3519
(dp3520
g61
(dp3521
sg70
g3074
sg63
(lp3522
g56
(g77
g58
NtRp3523
(dp3524
g61
(dp3525
g81
g82
ssg70
g3519
sg63
(lp3526
S'SCRIPT_NAME'
p3527
asbag56
(g77
g58
NtRp3528
(dp3529
g61
(dp3530
g88
g89
ssg70
g3519
sg63
(lp3531
S':'
asbag56
(g77
g58
NtRp3532
(dp3533
g61
(dp3534
sg70
g3519
sg63
(lp3535
g56
(g57
g58
NtRp3536
(dp3537
g61
(dp3538
g69
I3
ssg70
g3532
sg63
(lp3539
S''
asbasbasbag56
(g72
g58
NtRp3540
(dp3541
g61
(dp3542
sg70
g3074
sg63
(lp3543
g56
(g77
g58
NtRp3544
(dp3545
g61
(dp3546
g81
g82
ssg70
g3540
sg63
(lp3547
S'SERVER_NAME'
p3548
asbag56
(g77
g58
NtRp3549
(dp3550
g61
(dp3551
g88
g89
ssg70
g3540
sg63
(lp3552
S':'
asbag56
(g77
g58
NtRp3553
(dp3554
g61
(dp3555
sg70
g3540
sg63
(lp3556
g56
(g57
g58
NtRp3557
(dp3558
g61
(dp3559
g69
I3
ssg70
g3553
sg63
(lp3560
g1873
asbasbasbag56
(g72
g58
NtRp3561
(dp3562
g61
(dp3563
sg70
g3074
sg63
(lp3564
g56
(g77
g58
NtRp3565
(dp3566
g61
(dp3567
g81
g82
ssg70
g3561
sg63
(lp3568
S'SERVER_PORT'
p3569
asbag56
(g77
g58
NtRp3570
(dp3571
g61
(dp3572
g88
g89
ssg70
g3561
sg63
(lp3573
S':'
asbag56
(g77
g58
NtRp3574
(dp3575
g61
(dp3576
sg70
g3561
sg63
(lp3577
g56
(g57
g58
NtRp3578
(dp3579
g61
(dp3580
g69
I3
ssg70
g3574
sg63
(lp3581
g1895
asbasbasbag56
(g72
g58
NtRp3582
(dp3583
g61
(dp3584
sg70
g3074
sg63
(lp3585
g56
(g77
g58
NtRp3586
(dp3587
g61
(dp3588
g81
g82
ssg70
g3582
sg63
(lp3589
S'SERVER_PROTOCOL'
p3590
asbag56
(g77
g58
NtRp3591
(dp3592
g61
(dp3593
g88
g89
ssg70
g3582
sg63
(lp3594
S':'
asbag56
(g77
g58
NtRp3595
(dp3596
g61
(dp3597
sg70
g3582
sg63
(lp3598
g56
(g57
g58
NtRp3599
(dp3600
g61
(dp3601
g69
I3
ssg70
g3595
sg63
(lp3602
g1917
asbasbasbag56
(g72
g58
NtRp3603
(dp3604
g61
(dp3605
sg70
g3074
sg63
(lp3606
g56
(g77
g58
NtRp3607
(dp3608
g61
(dp3609
g81
g82
ssg70
g3603
sg63
(lp3610
S'SERVER_SOFTWARE'
p3611
asbag56
(g77
g58
NtRp3612
(dp3613
g61
(dp3614
g88
g89
ssg70
g3603
sg63
(lp3615
S':'
asbag56
(g77
g58
NtRp3616
(dp3617
g61
(dp3618
sg70
g3603
sg63
(lp3619
g56
(g57
g58
NtRp3620
(dp3621
g61
(dp3622
g69
I3
ssg70
g3616
sg63
(lp3623
g1939
asbasbasbag56
(g72
g58
NtRp3624
(dp3625
g61
(dp3626
sg70
g3074
sg63
(lp3627
g56
(g77
g58
NtRp3628
(dp3629
g61
(dp3630
g81
g82
ssg70
g3624
sg63
(lp3631
S'wsgi.errors'
p3632
asbag56
(g77
g58
NtRp3633
(dp3634
g61
(dp3635
g88
g89
ssg70
g3624
sg63
(lp3636
S':'
asbag56
(g77
g58
NtRp3637
(dp3638
g61
(dp3639
sg70
g3624
sg63
(lp3640
g56
(g57
g58
NtRp3641
(dp3642
g61
(dp3643
g69
I3
ssg70
g3637
sg63
(lp3644
S"<open file '<stderr>', mode 'w' at 0x7f2836a6d1e0>"
p3645
asbasbasbag56
(g72
g58
NtRp3646
(dp3647
g61
(dp3648
sg70
g3074
sg63
(lp3649
g56
(g77
g58
NtRp3650
(dp3651
g61
(dp3652
g81
g82
ssg70
g3646
sg63
(lp3653
S'wsgi.file_wrapper'
p3654
asbag56
(g77
g58
NtRp3655
(dp3656
g61
(dp3657
g88
g89
ssg70
g3646
sg63
(lp3658
S':'
asbag56
(g77
g58
NtRp3659
(dp3660
g61
(dp3661
sg70
g3646
sg63
(lp3662
g56
(g57
g58
NtRp3663
(dp3664
g61
(dp3665
g69
I3
ssg70
g3659
sg63
(lp3666
S'<class wsgiref.util.FileWrapper at 0x13897d0>'
p3667
asbasbasbag56
(g72
g58
NtRp3668
(dp3669
g61
(dp3670
sg70
g3074
sg63
(lp3671
g56
(g77
g58
NtRp3672
(dp3673
g61
(dp3674
g81
g82
ssg70
g3668
sg63
(lp3675
S'wsgi.input'
p3676
asbag56
(g77
g58
NtRp3677
(dp3678
g61
(dp3679
g88
g89
ssg70
g3668
sg63
(lp3680
S':'
asbag56
(g77
g58
NtRp3681
(dp3682
g61
(dp3683
sg70
g3668
sg63
(lp3684
g56
(g57
g58
NtRp3685
(dp3686
g61
(dp3687
g69
I3
ssg70
g3681
sg63
(lp3688
S"<open file '<fdopen>', mode 'w+b' at 0x1e60db0>"
p3689
asbasbasbag56
(g72
g58
NtRp3690
(dp3691
g61
(dp3692
sg70
g3074
sg63
(lp3693
g56
(g77
g58
NtRp3694
(dp3695
g61
(dp3696
g81
g82
ssg70
g3690
sg63
(lp3697
S'wsgi.multiprocess'
p3698
asbag56
(g77
g58
NtRp3699
(dp3700
g61
(dp3701
g88
g89
ssg70
g3690
sg63
(lp3702
S':'
asbag56
(g77
g58
NtRp3703
(dp3704
g61
(dp3705
sg70
g3690
sg63
(lp3706
g56
(g57
g58
NtRp3707
(dp3708
g61
(dp3709
g69
I3
ssg70
g3703
sg63
(lp3710
g1373
asbasbasbag56
(g72
g58
NtRp3711
(dp3712
g61
(dp3713
sg70
g3074
sg63
(lp3714
g56
(g77
g58
NtRp3715
(dp3716
g61
(dp3717
g81
g82
ssg70
g3711
sg63
(lp3718
S'wsgi.multithread'
p3719
asbag56
(g77
g58
NtRp3720
(dp3721
g61
(dp3722
g88
g89
ssg70
g3711
sg63
(lp3723
S':'
asbag56
(g77
g58
NtRp3724
(dp3725
g61
(dp3726
sg70
g3711
sg63
(lp3727
g56
(g57
g58
NtRp3728
(dp3729
g61
(dp3730
g69
I3
ssg70
g3724
sg63
(lp3731
g99
asbasbasbag56
(g72
g58
NtRp3732
(dp3733
g61
(dp3734
sg70
g3074
sg63
(lp3735
g56
(g77
g58
NtRp3736
(dp3737
g61
(dp3738
g81
g82
ssg70
g3732
sg63
(lp3739
S'wsgi.run_once'
p3740
asbag56
(g77
g58
NtRp3741
(dp3742
g61
(dp3743
g88
g89
ssg70
g3732
sg63
(lp3744
S':'
asbag56
(g77
g58
NtRp3745
(dp3746
g61
(dp3747
sg70
g3732
sg63
(lp3748
g56
(g57
g58
NtRp3749
(dp3750
g61
(dp3751
g69
I3
ssg70
g3745
sg63
(lp3752
g1373
asbasbasbag56
(g72
g58
NtRp3753
(dp3754
g61
(dp3755
sg70
g3074
sg63
(lp3756
g56
(g77
g58
NtRp3757
(dp3758
g61
(dp3759
g81
g82
ssg70
g3753
sg63
(lp3760
S'wsgi.url_scheme'
p3761
asbag56
(g77
g58
NtRp3762
(dp3763
g61
(dp3764
g88
g89
ssg70
g3753
sg63
(lp3765
S':'
asbag56
(g77
g58
NtRp3766
(dp3767
g61
(dp3768
sg70
g3753
sg63
(lp3769
g56
(g57
g58
NtRp3770
(dp3771
g61
(dp3772
g69
I3
ssg70
g3766
sg63
(lp3773
g2221
asbasbasbag56
(g72
g58
NtRp3774
(dp3775
g61
(dp3776
sg70
g3074
sg63
(lp3777
g56
(g77
g58
NtRp3778
(dp3779
g61
(dp3780
g81
g82
ssg70
g3774
sg63
(lp3781
S'wsgi.version'
p3782
asbag56
(g77
g58
NtRp3783
(dp3784
g61
(dp3785
g88
g89
ssg70
g3774
sg63
(lp3786
S':'
asbag56
(g77
g58
NtRp3787
(dp3788
g61
(dp3789
sg70
g3774
sg63
(lp3790
g56
(g57
g58
NtRp3791
(dp3792
g61
(dp3793
g69
I3
ssg70
g3787
sg63
(lp3794
S'1'
asbasbasbasbasbasbasbasbasbasbasbasbasbsS'frames'
p3795
(lp3796
(dp3797
S'file'
p3798
S'/home/samu/projects/web2py_cms/web2py/gluon/restricted.py'
p3799
sS'dump'
p3800
(dp3801
S'environment'
p3802
S"{'A': <class 'gluon.html.A'>, 'Auth': <class 'gluon.tools.Auth'>, 'B': <class 'gluon.html.B'>, 'BEAUTIFY': <class 'gluon.html.BEAUTIFY'>, 'BODY': <class 'gluon.html.BODY'>, 'BR': <class 'gluon.html.BR'>, 'BUTTON': <class 'gluon.html.BUTTON'>, 'CAT': <class 'gluon.html.CAT'>, 'CENTER': <class 'gluon.html.CENTER'>, 'CLEANUP': <class 'gluon.validators.CLEANUP'>, ...}"
p3803
sS'ccode'
p3804
S'<code object <module> at 0x1f93918, file "/home/...ns/file_manager/controllers/default.py", line 10>'
p3805
ssS'lnum'
p3806
I194
sS'lines'
p3807
(dp3808
I192
S'        else:'
p3809
sI193
S'            ccode = compile2(code,layer)'
p3810
sI194
S'        exec ccode in environment'
p3811
sI195
S'    except HTTP:'
p3812
sI196
S'        raise'
p3813
sI197
S'    except Exception, error:'
p3814
sI198
S'        # XXX Show exception in Wing IDE if running in debugger'
p3815
sI189
S'    try:'
p3816
sI190
S'        if type(code) == types.CodeType:'
p3817
sI191
S'            ccode = code'
p3818
ssS'call'
p3819
S"(code='# -*- coding: utf-8 -*- \\n\\n######################...rn pathset\\n\\nresponse._vars=response._caller(add)\\n', environment={'A': <class 'gluon.html.A'>, 'Auth': <class 'gluon.tools.Auth'>, 'B': <class 'gluon.html.B'>, 'BEAUTIFY': <class 'gluon.html.BEAUTIFY'>, 'BODY': <class 'gluon.html.BODY'>, 'BR': <class 'gluon.html.BR'>, 'BUTTON': <class 'gluon.html.BUTTON'>, 'CAT': <class 'gluon.html.CAT'>, 'CENTER': <class 'gluon.html.CENTER'>, 'CLEANUP': <class 'gluon.validators.CLEANUP'>, ...}, layer='/home/samu/projects/web2py_cms/web2py/applications/file_manager/controllers/default.py')"
p3820
sS'func'
p3821
S'restricted'
p3822
sa(dp3823
g3798
S'/home/samu/projects/web2py_cms/web2py/applications/file_manager/controllers/default.py'
p3824
sg3800
(dp3825
sg3806
I396
sg3807
(dp3826
I385
S'        pathset.append(path)'
p3827
sI386
S'        rows=db((db.allfiles.parentpath==path)&(db.allfiles.user==me)).select()'
p3828
sI387
S'        for row in rows:'
p3829
sI388
S"            if row.filetype=='dir':"
p3830
sI389
S'                remove(row.filepath,pathset=pathset)'
p3831
sI390
S'            else:'
p3832
sI391
S'                pathset.append(row.filepath)'
p3833
sI392
S'    else:'
p3834
sI393
S'        pathset.append(path)'
p3835
sI394
S'    return pathset'
p3836
ssg3819
S'()'
p3837
sg3821
S'<module>'
p3838
sa(dp3839
g3798
S'/home/samu/projects/web2py_cms/web2py/gluon/globals.py'
p3840
sg3800
(dp3841
S'self'
p3842
S'undefined'
p3843
sS'f'
S'<function add>'
p3844
ssg3806
I149
sg3807
(dp3845
I144
S'        self.meta = Storage()      # used by web2py_ajax.html'
p3846
sI145
S'        self.menu = []             # used by the default view layout'
p3847
sI146
S'        self.files = []            # used by web2py_ajax.html'
p3848
sI147
S'        self.generic_patterns = [] # patterns to allow generic views'
p3849
sI148
S'        self._vars = None'
p3850
sI149
S'        self._caller = lambda f: f()'
p3851
sI150
S'        self._view_environment = None'
p3852
sI151
S'        self._custom_commit = None'
p3853
sI152
S'        self._custom_rollback = None'
p3854
sI153
S''
ssg3819
S'(f=<function add>)'
p3855
sg3821
S'<lambda>'
p3856
sa(dp3857
g3798
S'/home/samu/projects/web2py_cms/web2py/applications/file_manager/controllers/default.py'
p3858
sg3800
(dp3859
S'file.filename'
p3860
g3843
sS'file'
p3861
S"''"
p3862
sS'filename'
p3863
g3843
ssg3806
I317
sg3807
(dp3864
I320
S'    filetype=os.path.splitext(filename)[1][1:]'
p3865
sI321
S'    row=db((db.allfiles.parentpath==parentpath)&(db.allfiles.filepath==filepath)&(db.allfiles.filename==filename) \\'
p3866
sI312
S''
sI313
S''
sI314
S'def add():'
p3867
sI315
S'    parentpath=request.vars.currentpath'
p3868
sI316
S'    file=request.vars.file'
p3869
sI317
S"    filename=file.filename.replace(' ','_')"
p3870
sI318
S''
sI319
S'    filepath=parentpath+filename'
p3871
ssg3819
S'()'
p3872
sg3821
S'add'
p3873
sasS'pyver'
p3874
S'Python 2.6.6: /usr/bin/python'
p3875
sS'session'
p3876
g56
(g57
g58
NtRp3877
(dp3878
g61
(dp3879
sg63
(lp3880
g56
(g65
g58
NtRp3881
(dp3882
g61
(dp3883
g69
I5
ssg70
Nsg63
(lp3884
sbasbsS'etype'
p3885
S"<type 'exceptions.AttributeError'>"
p3886
sS'date'
p3887
S'Mon Nov  7 07:56:00 2011'
p3888
sS'response'
p3889
g56
(g57
g58
NtRp3890
(dp3891
g61
(dp3892
sg63
(lp3893
g56
(g65
g58
NtRp3894
(dp3895
g61
(dp3896
g69
I5
ssg70
Nsg63
(lp3897
g56
(g72
g58
NtRp3898
(dp3899
g61
(dp3900
sg70
g3894
sg63
(lp3901
g56
(g77
g58
NtRp3902
(dp3903
g61
(dp3904
g81
g82
ssg70
g3898
sg63
(lp3905
g154
asbag56
(g77
g58
NtRp3906
(dp3907
g61
(dp3908
g88
g89
ssg70
g3898
sg63
(lp3909
S':'
asbag56
(g77
g58
NtRp3910
(dp3911
g61
(dp3912
sg70
g3898
sg63
(lp3913
g56
(g57
g58
NtRp3914
(dp3915
g61
(dp3916
g69
I5
ssg70
g3910
sg63
(lp3917
S'<cStringIO.StringO object at 0x1b24ce0>'
p3918
asbasbasbag56
(g72
g58
NtRp3919
(dp3920
g61
(dp3921
sg70
g3894
sg63
(lp3922
g56
(g77
g58
NtRp3923
(dp3924
g61
(dp3925
g81
g82
ssg70
g3919
sg63
(lp3926
g220
asbag56
(g77
g58
NtRp3927
(dp3928
g61
(dp3929
g88
g89
ssg70
g3919
sg63
(lp3930
S':'
asbag56
(g77
g58
NtRp3931
(dp3932
g61
(dp3933
sg70
g3919
sg63
(lp3934
g56
(g57
g58
NtRp3935
(dp3936
g61
(dp3937
g69
I5
ssg70
g3931
sg63
(lp3938
g56
(g65
g58
NtRp3939
(dp3940
g61
(dp3941
g69
I4
ssg70
Nsg63
(lp3942
g56
(g72
g58
NtRp3943
(dp3944
g61
(dp3945
sg70
g3939
sg63
(lp3946
g56
(g77
g58
NtRp3947
(dp3948
g61
(dp3949
g81
g82
ssg70
g3943
sg63
(lp3950
S'session_id_file_manager'
p3951
asbag56
(g77
g58
NtRp3952
(dp3953
g61
(dp3954
g88
g89
ssg70
g3943
sg63
(lp3955
S':'
asbag56
(g77
g58
NtRp3956
(dp3957
g61
(dp3958
sg70
g3943
sg63
(lp3959
g56
(g57
g58
NtRp3960
(dp3961
g61
(dp3962
g69
I4
ssg70
g3956
sg63
(lp3963
g56
(g65
g58
NtRp3964
(dp3965
g61
(dp3966
g69
I3
ssg70
Nsg63
(lp3967
g56
(g72
g58
NtRp3968
(dp3969
g61
(dp3970
sg70
g3964
sg63
(lp3971
g56
(g77
g58
NtRp3972
(dp3973
g61
(dp3974
g81
g82
ssg70
g3968
sg63
(lp3975
g270
asbag56
(g77
g58
NtRp3976
(dp3977
g61
(dp3978
g88
g89
ssg70
g3968
sg63
(lp3979
S':'
asbag56
(g77
g58
NtRp3980
(dp3981
g61
(dp3982
sg70
g3968
sg63
(lp3983
g56
(g57
g58
NtRp3984
(dp3985
g61
(dp3986
g69
I3
ssg70
g3980
sg63
(lp3987
S''
asbasbasbag56
(g72
g58
NtRp3988
(dp3989
g61
(dp3990
sg70
g3964
sg63
(lp3991
g56
(g77
g58
NtRp3992
(dp3993
g61
(dp3994
g81
g82
ssg70
g3988
sg63
(lp3995
g291
asbag56
(g77
g58
NtRp3996
(dp3997
g61
(dp3998
g88
g89
ssg70
g3988
sg63
(lp3999
S':'
asbag56
(g77
g58
NtRp4000
(dp4001
g61
(dp4002
sg70
g3988
sg63
(lp4003
g56
(g57
g58
NtRp4004
(dp4005
g61
(dp4006
g69
I3
ssg70
g4000
sg63
(lp4007
S''
asbasbasbag56
(g72
g58
NtRp4008
(dp4009
g61
(dp4010
sg70
g3964
sg63
(lp4011
g56
(g77
g58
NtRp4012
(dp4013
g61
(dp4014
g81
g82
ssg70
g4008
sg63
(lp4015
g312
asbag56
(g77
g58
NtRp4016
(dp4017
g61
(dp4018
g88
g89
ssg70
g4008
sg63
(lp4019
S':'
asbag56
(g77
g58
NtRp4020
(dp4021
g61
(dp4022
sg70
g4008
sg63
(lp4023
g56
(g57
g58
NtRp4024
(dp4025
g61
(dp4026
g69
I3
ssg70
g4020
sg63
(lp4027
S''
asbasbasbag56
(g72
g58
NtRp4028
(dp4029
g61
(dp4030
sg70
g3964
sg63
(lp4031
g56
(g77
g58
NtRp4032
(dp4033
g61
(dp4034
g81
g82
ssg70
g4028
sg63
(lp4035
g333
asbag56
(g77
g58
NtRp4036
(dp4037
g61
(dp4038
g88
g89
ssg70
g4028
sg63
(lp4039
S':'
asbag56
(g77
g58
NtRp4040
(dp4041
g61
(dp4042
sg70
g4028
sg63
(lp4043
g56
(g57
g58
NtRp4044
(dp4045
g61
(dp4046
g69
I3
ssg70
g4040
sg63
(lp4047
S''
asbasbasbag56
(g72
g58
NtRp4048
(dp4049
g61
(dp4050
sg70
g3964
sg63
(lp4051
g56
(g77
g58
NtRp4052
(dp4053
g61
(dp4054
g81
g82
ssg70
g4048
sg63
(lp4055
g354
asbag56
(g77
g58
NtRp4056
(dp4057
g61
(dp4058
g88
g89
ssg70
g4048
sg63
(lp4059
S':'
asbag56
(g77
g58
NtRp4060
(dp4061
g61
(dp4062
sg70
g4048
sg63
(lp4063
g56
(g57
g58
NtRp4064
(dp4065
g61
(dp4066
g69
I3
ssg70
g4060
sg63
(lp4067
S''
asbasbasbag56
(g72
g58
NtRp4068
(dp4069
g61
(dp4070
sg70
g3964
sg63
(lp4071
g56
(g77
g58
NtRp4072
(dp4073
g61
(dp4074
g81
g82
ssg70
g4068
sg63
(lp4075
g375
asbag56
(g77
g58
NtRp4076
(dp4077
g61
(dp4078
g88
g89
ssg70
g4068
sg63
(lp4079
S':'
asbag56
(g77
g58
NtRp4080
(dp4081
g61
(dp4082
sg70
g4068
sg63
(lp4083
g56
(g57
g58
NtRp4084
(dp4085
g61
(dp4086
g69
I3
ssg70
g4080
sg63
(lp4087
S'/'
asbasbasbag56
(g72
g58
NtRp4088
(dp4089
g61
(dp4090
sg70
g3964
sg63
(lp4091
g56
(g77
g58
NtRp4092
(dp4093
g61
(dp4094
g81
g82
ssg70
g4088
sg63
(lp4095
g396
asbag56
(g77
g58
NtRp4096
(dp4097
g61
(dp4098
g88
g89
ssg70
g4088
sg63
(lp4099
S':'
asbag56
(g77
g58
NtRp4100
(dp4101
g61
(dp4102
sg70
g4088
sg63
(lp4103
g56
(g57
g58
NtRp4104
(dp4105
g61
(dp4106
g69
I3
ssg70
g4100
sg63
(lp4107
S''
asbasbasbag56
(g72
g58
NtRp4108
(dp4109
g61
(dp4110
sg70
g3964
sg63
(lp4111
g56
(g77
g58
NtRp4112
(dp4113
g61
(dp4114
g81
g82
ssg70
g4108
sg63
(lp4115
g417
asbag56
(g77
g58
NtRp4116
(dp4117
g61
(dp4118
g88
g89
ssg70
g4108
sg63
(lp4119
S':'
asbag56
(g77
g58
NtRp4120
(dp4121
g61
(dp4122
sg70
g4108
sg63
(lp4123
g56
(g57
g58
NtRp4124
(dp4125
g61
(dp4126
g69
I3
ssg70
g4120
sg63
(lp4127
S''
asbasbasbasbasbasbasbasbasbasbasbag56
(g72
g58
NtRp4128
(dp4129
g61
(dp4130
sg70
g3894
sg63
(lp4131
g56
(g77
g58
NtRp4132
(dp4133
g61
(dp4134
g81
g82
ssg70
g4128
sg63
(lp4135
S'files'
p4136
asbag56
(g77
g58
NtRp4137
(dp4138
g61
(dp4139
g88
g89
ssg70
g4128
sg63
(lp4140
S':'
asbag56
(g77
g58
NtRp4141
(dp4142
g61
(dp4143
sg70
g4128
sg63
(lp4144
g56
(g57
g58
NtRp4145
(dp4146
g61
(dp4147
g69
I5
ssg70
g4141
sg63
(lp4148
g56
(g65
g58
NtRp4149
(dp4150
g61
(dp4151
g69
I4
ssg70
Nsg63
(lp4152
sbasbasbasbag56
(g72
g58
NtRp4153
(dp4154
g61
(dp4155
sg70
g3894
sg63
(lp4156
g56
(g77
g58
NtRp4157
(dp4158
g61
(dp4159
g81
g82
ssg70
g4153
sg63
(lp4160
S'flash'
p4161
asbag56
(g77
g58
NtRp4162
(dp4163
g61
(dp4164
g88
g89
ssg70
g4153
sg63
(lp4165
S':'
asbag56
(g77
g58
NtRp4166
(dp4167
g61
(dp4168
sg70
g4153
sg63
(lp4169
g56
(g57
g58
NtRp4170
(dp4171
g61
(dp4172
g69
I5
ssg70
g4166
sg63
(lp4173
S''
asbasbasbag56
(g72
g58
NtRp4174
(dp4175
g61
(dp4176
sg70
g3894
sg63
(lp4177
g56
(g77
g58
NtRp4178
(dp4179
g61
(dp4180
g81
g82
ssg70
g4174
sg63
(lp4181
S'generic_patterns'
p4182
asbag56
(g77
g58
NtRp4183
(dp4184
g61
(dp4185
g88
g89
ssg70
g4174
sg63
(lp4186
S':'
asbag56
(g77
g58
NtRp4187
(dp4188
g61
(dp4189
sg70
g4174
sg63
(lp4190
g56
(g57
g58
NtRp4191
(dp4192
g61
(dp4193
g69
I5
ssg70
g4187
sg63
(lp4194
g56
(g65
g58
NtRp4195
(dp4196
g61
(dp4197
g69
I4
ssg70
Nsg63
(lp4198
sbasbasbasbag56
(g72
g58
NtRp4199
(dp4200
g61
(dp4201
sg70
g3894
sg63
(lp4202
g56
(g77
g58
NtRp4203
(dp4204
g61
(dp4205
g81
g82
ssg70
g4199
sg63
(lp4206
S'headers'
p4207
asbag56
(g77
g58
NtRp4208
(dp4209
g61
(dp4210
g88
g89
ssg70
g4199
sg63
(lp4211
S':'
asbag56
(g77
g58
NtRp4212
(dp4213
g61
(dp4214
sg70
g4199
sg63
(lp4215
g56
(g57
g58
NtRp4216
(dp4217
g61
(dp4218
g69
I5
ssg70
g4212
sg63
(lp4219
g56
(g65
g58
NtRp4220
(dp4221
g61
(dp4222
g69
I4
ssg70
Nsg63
(lp4223
g56
(g72
g58
NtRp4224
(dp4225
g61
(dp4226
sg70
g4220
sg63
(lp4227
g56
(g77
g58
NtRp4228
(dp4229
g61
(dp4230
g81
g82
ssg70
g4224
sg63
(lp4231
S'Cache-Control'
p4232
asbag56
(g77
g58
NtRp4233
(dp4234
g61
(dp4235
g88
g89
ssg70
g4224
sg63
(lp4236
S':'
asbag56
(g77
g58
NtRp4237
(dp4238
g61
(dp4239
sg70
g4224
sg63
(lp4240
g56
(g57
g58
NtRp4241
(dp4242
g61
(dp4243
g69
I4
ssg70
g4237
sg63
(lp4244
S'no-store, no-cache, must-revalidate, post-check=0, pre-check=0'
p4245
asbasbasbag56
(g72
g58
NtRp4246
(dp4247
g61
(dp4248
sg70
g4220
sg63
(lp4249
g56
(g77
g58
NtRp4250
(dp4251
g61
(dp4252
g81
g82
ssg70
g4246
sg63
(lp4253
S'Content-Type'
p4254
asbag56
(g77
g58
NtRp4255
(dp4256
g61
(dp4257
g88
g89
ssg70
g4246
sg63
(lp4258
S':'
asbag56
(g77
g58
NtRp4259
(dp4260
g61
(dp4261
sg70
g4246
sg63
(lp4262
g56
(g57
g58
NtRp4263
(dp4264
g61
(dp4265
g69
I4
ssg70
g4259
sg63
(lp4266
S'text/html; charset=utf-8'
p4267
asbasbasbag56
(g72
g58
NtRp4268
(dp4269
g61
(dp4270
sg70
g4220
sg63
(lp4271
g56
(g77
g58
NtRp4272
(dp4273
g61
(dp4274
g81
g82
ssg70
g4268
sg63
(lp4275
S'Expires'
p4276
asbag56
(g77
g58
NtRp4277
(dp4278
g61
(dp4279
g88
g89
ssg70
g4268
sg63
(lp4280
S':'
asbag56
(g77
g58
NtRp4281
(dp4282
g61
(dp4283
sg70
g4268
sg63
(lp4284
g56
(g57
g58
NtRp4285
(dp4286
g61
(dp4287
g69
I4
ssg70
g4281
sg63
(lp4288
S'Mon, 07 Nov 2011 06:56:00 GMT'
p4289
asbasbasbag56
(g72
g58
NtRp4290
(dp4291
g61
(dp4292
sg70
g4220
sg63
(lp4293
g56
(g77
g58
NtRp4294
(dp4295
g61
(dp4296
g81
g82
ssg70
g4290
sg63
(lp4297
S'Pragma'
p4298
asbag56
(g77
g58
NtRp4299
(dp4300
g61
(dp4301
g88
g89
ssg70
g4290
sg63
(lp4302
S':'
asbag56
(g77
g58
NtRp4303
(dp4304
g61
(dp4305
sg70
g4290
sg63
(lp4306
g56
(g57
g58
NtRp4307
(dp4308
g61
(dp4309
g69
I4
ssg70
g4303
sg63
(lp4310
S'no-cache'
p4311
asbasbasbag56
(g72
g58
NtRp4312
(dp4313
g61
(dp4314
sg70
g4220
sg63
(lp4315
g56
(g77
g58
NtRp4316
(dp4317
g61
(dp4318
g81
g82
ssg70
g4312
sg63
(lp4319
S'X-Powered-By'
p4320
asbag56
(g77
g58
NtRp4321
(dp4322
g61
(dp4323
g88
g89
ssg70
g4312
sg63
(lp4324
S':'
asbag56
(g77
g58
NtRp4325
(dp4326
g61
(dp4327
sg70
g4312
sg63
(lp4328
g56
(g57
g58
NtRp4329
(dp4330
g61
(dp4331
g69
I4
ssg70
g4325
sg63
(lp4332
S'web2py'
p4333
asbasbasbasbasbasbasbag56
(g72
g58
NtRp4334
(dp4335
g61
(dp4336
sg70
g3894
sg63
(lp4337
g56
(g77
g58
NtRp4338
(dp4339
g61
(dp4340
g81
g82
ssg70
g4334
sg63
(lp4341
S'menu'
p4342
asbag56
(g77
g58
NtRp4343
(dp4344
g61
(dp4345
g88
g89
ssg70
g4334
sg63
(lp4346
S':'
asbag56
(g77
g58
NtRp4347
(dp4348
g61
(dp4349
sg70
g4334
sg63
(lp4350
g56
(g57
g58
NtRp4351
(dp4352
g61
(dp4353
g69
I5
ssg70
g4347
sg63
(lp4354
g56
(g65
g58
NtRp4355
(dp4356
g61
(dp4357
g69
I4
ssg70
Nsg63
(lp4358
g56
(g72
g58
NtRp4359
(dp4360
g61
(dp4361
sg70
g4355
sg63
(lp4362
g56
(g77
g58
NtRp4363
(dp4364
g61
(dp4365
sg70
g4359
sg63
(lp4366
g56
(g57
g58
NtRp4367
(dp4368
g61
(dp4369
g69
I4
ssg70
g4363
sg63
(lp4370
g56
(g65
g58
NtRp4371
(dp4372
g61
(dp4373
g69
I3
ssg70
Nsg63
(lp4374
g56
(g72
g58
NtRp4375
(dp4376
g61
(dp4377
sg70
g4371
sg63
(lp4378
g56
(g77
g58
NtRp4379
(dp4380
g61
(dp4381
sg70
g4375
sg63
(lp4382
g56
(g57
g58
NtRp4383
(dp4384
g61
(dp4385
g69
I3
ssg70
g4379
sg63
(lp4386
cgluon.languages
lazyT_unpickle
p4387
(S's\x05\x00\x00\x00Index'
tRp4388
asbasbasbag56
(g72
g58
NtRp4389
(dp4390
g61
(dp4391
sg70
g4371
sg63
(lp4392
g56
(g77
g58
NtRp4393
(dp4394
g61
(dp4395
sg70
g4389
sg63
(lp4396
g56
(g57
g58
NtRp4397
(dp4398
g61
(dp4399
g69
I3
ssg70
g4393
sg63
(lp4400
g1373
asbasbasbag56
(g72
g58
NtRp4401
(dp4402
g61
(dp4403
sg70
g4371
sg63
(lp4404
g56
(g77
g58
NtRp4405
(dp4406
g61
(dp4407
sg70
g4401
sg63
(lp4408
g56
(g57
g58
NtRp4409
(dp4410
g61
(dp4411
g69
I3
ssg70
g4405
sg63
(lp4412
S'/file_manager/default/index'
p4413
asbasbasbag56
(g72
g58
NtRp4414
(dp4415
g61
(dp4416
sg70
g4371
sg63
(lp4417
g56
(g77
g58
NtRp4418
(dp4419
g61
(dp4420
sg70
g4414
sg63
(lp4421
g56
(g57
g58
NtRp4422
(dp4423
g61
(dp4424
g69
I3
ssg70
g4418
sg63
(lp4425
g56
(g65
g58
NtRp4426
(dp4427
g61
(dp4428
g69
I2
ssg70
Nsg63
(lp4429
sbasbasbasbasbasbasbasbasbasbasbasbag56
(g72
g58
NtRp4430
(dp4431
g61
(dp4432
sg70
g3894
sg63
(lp4433
g56
(g77
g58
NtRp4434
(dp4435
g61
(dp4436
g81
g82
ssg70
g4430
sg63
(lp4437
S'menu_edit'
p4438
asbag56
(g77
g58
NtRp4439
(dp4440
g61
(dp4441
g88
g89
ssg70
g4430
sg63
(lp4442
S':'
asbag56
(g77
g58
NtRp4443
(dp4444
g61
(dp4445
sg70
g4430
sg63
(lp4446
g56
(g57
g58
NtRp4447
(dp4448
g61
(dp4449
g69
I5
ssg70
g4443
sg63
(lp4450
g56
(g65
g58
NtRp4451
(dp4452
g61
(dp4453
g69
I4
ssg70
Nsg63
(lp4454
g56
(g72
g58
NtRp4455
(dp4456
g61
(dp4457
sg70
g4451
sg63
(lp4458
g56
(g77
g58
NtRp4459
(dp4460
g61
(dp4461
sg70
g4455
sg63
(lp4462
g56
(g57
g58
NtRp4463
(dp4464
g61
(dp4465
g69
I4
ssg70
g4459
sg63
(lp4466
g56
(g65
g58
NtRp4467
(dp4468
g61
(dp4469
g69
I3
ssg70
Nsg63
(lp4470
g56
(g72
g58
NtRp4471
(dp4472
g61
(dp4473
sg70
g4467
sg63
(lp4474
g56
(g77
g58
NtRp4475
(dp4476
g61
(dp4477
sg70
g4471
sg63
(lp4478
g56
(g57
g58
NtRp4479
(dp4480
g61
(dp4481
g69
I3
ssg70
g4475
sg63
(lp4482
g4387
(S's\x04\x00\x00\x00Edit'
tRp4483
asbasbasbag56
(g72
g58
NtRp4484
(dp4485
g61
(dp4486
sg70
g4467
sg63
(lp4487
g56
(g77
g58
NtRp4488
(dp4489
g61
(dp4490
sg70
g4484
sg63
(lp4491
g56
(g57
g58
NtRp4492
(dp4493
g61
(dp4494
g69
I3
ssg70
g4488
sg63
(lp4495
g1373
asbasbasbag56
(g72
g58
NtRp4496
(dp4497
g61
(dp4498
sg70
g4467
sg63
(lp4499
g56
(g77
g58
NtRp4500
(dp4501
g61
(dp4502
sg70
g4496
sg63
(lp4503
g56
(g57
g58
NtRp4504
(dp4505
g61
(dp4506
g69
I3
ssg70
g4500
sg63
(lp4507
S'/admin/default/design/file_manager'
p4508
asbasbasbag56
(g72
g58
NtRp4509
(dp4510
g61
(dp4511
sg70
g4467
sg63
(lp4512
g56
(g77
g58
NtRp4513
(dp4514
g61
(dp4515
sg70
g4509
sg63
(lp4516
g56
(g57
g58
NtRp4517
(dp4518
g61
(dp4519
g69
I3
ssg70
g4513
sg63
(lp4520
g56
(g65
g58
NtRp4521
(dp4522
g61
(dp4523
g69
I2
ssg70
Nsg63
(lp4524
g56
(g72
g58
NtRp4525
(dp4526
g61
(dp4527
sg70
g4521
sg63
(lp4528
g56
(g77
g58
NtRp4529
(dp4530
g61
(dp4531
sg70
g4525
sg63
(lp4532
g56
(g57
g58
NtRp4533
(dp4534
g61
(dp4535
g69
I2
ssg70
g4529
sg63
(lp4536
g56
(g65
g58
NtRp4537
(dp4538
g61
(dp4539
g69
I1
ssg70
Nsg63
(lp4540
g56
(g72
g58
NtRp4541
(dp4542
g61
(dp4543
sg70
g4537
sg63
(lp4544
g56
(g77
g58
NtRp4545
(dp4546
g61
(dp4547
sg70
g4541
sg63
(lp4548
g56
(g57
g58
NtRp4549
(dp4550
g61
(dp4551
g69
I1
ssg70
g4545
sg63
(lp4552
g4387
(S's\n\x00\x00\x00Controller'
tRp4553
asbasbasbag56
(g72
g58
NtRp4554
(dp4555
g61
(dp4556
sg70
g4537
sg63
(lp4557
g56
(g77
g58
NtRp4558
(dp4559
g61
(dp4560
sg70
g4554
sg63
(lp4561
g56
(g57
g58
NtRp4562
(dp4563
g61
(dp4564
g69
I1
ssg70
g4558
sg63
(lp4565
I00
asbasbasbag56
(g72
g58
NtRp4566
(dp4567
g61
(dp4568
sg70
g4537
sg63
(lp4569
g56
(g77
g58
NtRp4570
(dp4571
g61
(dp4572
sg70
g4566
sg63
(lp4573
g56
(g57
g58
NtRp4574
(dp4575
g61
(dp4576
g69
I1
ssg70
g4570
sg63
(lp4577
S'/admin/default/edit/file_manager/controllers/default.py'
p4578
asbasbasbasbasbasbasbag56
(g72
g58
NtRp4579
(dp4580
g61
(dp4581
sg70
g4521
sg63
(lp4582
g56
(g77
g58
NtRp4583
(dp4584
g61
(dp4585
sg70
g4579
sg63
(lp4586
g56
(g57
g58
NtRp4587
(dp4588
g61
(dp4589
g69
I2
ssg70
g4583
sg63
(lp4590
g56
(g65
g58
NtRp4591
(dp4592
g61
(dp4593
g69
I1
ssg70
Nsg63
(lp4594
g56
(g72
g58
NtRp4595
(dp4596
g61
(dp4597
sg70
g4591
sg63
(lp4598
g56
(g77
g58
NtRp4599
(dp4600
g61
(dp4601
sg70
g4595
sg63
(lp4602
g56
(g57
g58
NtRp4603
(dp4604
g61
(dp4605
g69
I1
ssg70
g4599
sg63
(lp4606
g4387
(S's\x04\x00\x00\x00View'
tRp4607
asbasbasbag56
(g72
g58
NtRp4608
(dp4609
g61
(dp4610
sg70
g4591
sg63
(lp4611
g56
(g77
g58
NtRp4612
(dp4613
g61
(dp4614
sg70
g4608
sg63
(lp4615
g56
(g57
g58
NtRp4616
(dp4617
g61
(dp4618
g69
I1
ssg70
g4612
sg63
(lp4619
I00
asbasbasbag56
(g72
g58
NtRp4620
(dp4621
g61
(dp4622
sg70
g4591
sg63
(lp4623
g56
(g77
g58
NtRp4624
(dp4625
g61
(dp4626
sg70
g4620
sg63
(lp4627
g56
(g57
g58
NtRp4628
(dp4629
g61
(dp4630
g69
I1
ssg70
g4624
sg63
(lp4631
S'/admin/default/edit/file_manager/views/default/add.html'
p4632
asbasbasbasbasbasbasbag56
(g72
g58
NtRp4633
(dp4634
g61
(dp4635
sg70
g4521
sg63
(lp4636
g56
(g77
g58
NtRp4637
(dp4638
g61
(dp4639
sg70
g4633
sg63
(lp4640
g56
(g57
g58
NtRp4641
(dp4642
g61
(dp4643
g69
I2
ssg70
g4637
sg63
(lp4644
g56
(g65
g58
NtRp4645
(dp4646
g61
(dp4647
g69
I1
ssg70
Nsg63
(lp4648
g56
(g72
g58
NtRp4649
(dp4650
g61
(dp4651
sg70
g4645
sg63
(lp4652
g56
(g77
g58
NtRp4653
(dp4654
g61
(dp4655
sg70
g4649
sg63
(lp4656
g56
(g57
g58
NtRp4657
(dp4658
g61
(dp4659
g69
I1
ssg70
g4653
sg63
(lp4660
g4387
(S's\x06\x00\x00\x00Layout'
tRp4661
asbasbasbag56
(g72
g58
NtRp4662
(dp4663
g61
(dp4664
sg70
g4645
sg63
(lp4665
g56
(g77
g58
NtRp4666
(dp4667
g61
(dp4668
sg70
g4662
sg63
(lp4669
g56
(g57
g58
NtRp4670
(dp4671
g61
(dp4672
g69
I1
ssg70
g4666
sg63
(lp4673
I00
asbasbasbag56
(g72
g58
NtRp4674
(dp4675
g61
(dp4676
sg70
g4645
sg63
(lp4677
g56
(g77
g58
NtRp4678
(dp4679
g61
(dp4680
sg70
g4674
sg63
(lp4681
g56
(g57
g58
NtRp4682
(dp4683
g61
(dp4684
g69
I1
ssg70
g4678
sg63
(lp4685
S'/admin/default/edit/file_manager/views/layout.html'
p4686
asbasbasbasbasbasbasbag56
(g72
g58
NtRp4687
(dp4688
g61
(dp4689
sg70
g4521
sg63
(lp4690
g56
(g77
g58
NtRp4691
(dp4692
g61
(dp4693
sg70
g4687
sg63
(lp4694
g56
(g57
g58
NtRp4695
(dp4696
g61
(dp4697
g69
I2
ssg70
g4691
sg63
(lp4698
g56
(g65
g58
NtRp4699
(dp4700
g61
(dp4701
g69
I1
ssg70
Nsg63
(lp4702
g56
(g72
g58
NtRp4703
(dp4704
g61
(dp4705
sg70
g4699
sg63
(lp4706
g56
(g77
g58
NtRp4707
(dp4708
g61
(dp4709
sg70
g4703
sg63
(lp4710
g56
(g57
g58
NtRp4711
(dp4712
g61
(dp4713
g69
I1
ssg70
g4707
sg63
(lp4714
g4387
(S's\n\x00\x00\x00Stylesheet'
tRp4715
asbasbasbag56
(g72
g58
NtRp4716
(dp4717
g61
(dp4718
sg70
g4699
sg63
(lp4719
g56
(g77
g58
NtRp4720
(dp4721
g61
(dp4722
sg70
g4716
sg63
(lp4723
g56
(g57
g58
NtRp4724
(dp4725
g61
(dp4726
g69
I1
ssg70
g4720
sg63
(lp4727
I00
asbasbasbag56
(g72
g58
NtRp4728
(dp4729
g61
(dp4730
sg70
g4699
sg63
(lp4731
g56
(g77
g58
NtRp4732
(dp4733
g61
(dp4734
sg70
g4728
sg63
(lp4735
g56
(g57
g58
NtRp4736
(dp4737
g61
(dp4738
g69
I1
ssg70
g4732
sg63
(lp4739
S'/admin/default/edit/file_manager/static/base.css'
p4740
asbasbasbasbasbasbasbag56
(g72
g58
NtRp4741
(dp4742
g61
(dp4743
sg70
g4521
sg63
(lp4744
g56
(g77
g58
NtRp4745
(dp4746
g61
(dp4747
sg70
g4741
sg63
(lp4748
g56
(g57
g58
NtRp4749
(dp4750
g61
(dp4751
g69
I2
ssg70
g4745
sg63
(lp4752
g56
(g65
g58
NtRp4753
(dp4754
g61
(dp4755
g69
I1
ssg70
Nsg63
(lp4756
g56
(g72
g58
NtRp4757
(dp4758
g61
(dp4759
sg70
g4753
sg63
(lp4760
g56
(g77
g58
NtRp4761
(dp4762
g61
(dp4763
sg70
g4757
sg63
(lp4764
g56
(g57
g58
NtRp4765
(dp4766
g61
(dp4767
g69
I1
ssg70
g4761
sg63
(lp4768
g4387
(S's\x08\x00\x00\x00DB Model'
tRp4769
asbasbasbag56
(g72
g58
NtRp4770
(dp4771
g61
(dp4772
sg70
g4753
sg63
(lp4773
g56
(g77
g58
NtRp4774
(dp4775
g61
(dp4776
sg70
g4770
sg63
(lp4777
g56
(g57
g58
NtRp4778
(dp4779
g61
(dp4780
g69
I1
ssg70
g4774
sg63
(lp4781
I00
asbasbasbag56
(g72
g58
NtRp4782
(dp4783
g61
(dp4784
sg70
g4753
sg63
(lp4785
g56
(g77
g58
NtRp4786
(dp4787
g61
(dp4788
sg70
g4782
sg63
(lp4789
g56
(g57
g58
NtRp4790
(dp4791
g61
(dp4792
g69
I1
ssg70
g4786
sg63
(lp4793
S'/admin/default/edit/file_manager/models/db.py'
p4794
asbasbasbasbasbasbasbag56
(g72
g58
NtRp4795
(dp4796
g61
(dp4797
sg70
g4521
sg63
(lp4798
g56
(g77
g58
NtRp4799
(dp4800
g61
(dp4801
sg70
g4795
sg63
(lp4802
g56
(g57
g58
NtRp4803
(dp4804
g61
(dp4805
g69
I2
ssg70
g4799
sg63
(lp4806
g56
(g65
g58
NtRp4807
(dp4808
g61
(dp4809
g69
I1
ssg70
Nsg63
(lp4810
g56
(g72
g58
NtRp4811
(dp4812
g61
(dp4813
sg70
g4807
sg63
(lp4814
g56
(g77
g58
NtRp4815
(dp4816
g61
(dp4817
sg70
g4811
sg63
(lp4818
g56
(g57
g58
NtRp4819
(dp4820
g61
(dp4821
g69
I1
ssg70
g4815
sg63
(lp4822
g4387
(S's\n\x00\x00\x00Menu Model'
tRp4823
asbasbasbag56
(g72
g58
NtRp4824
(dp4825
g61
(dp4826
sg70
g4807
sg63
(lp4827
g56
(g77
g58
NtRp4828
(dp4829
g61
(dp4830
sg70
g4824
sg63
(lp4831
g56
(g57
g58
NtRp4832
(dp4833
g61
(dp4834
g69
I1
ssg70
g4828
sg63
(lp4835
I00
asbasbasbag56
(g72
g58
NtRp4836
(dp4837
g61
(dp4838
sg70
g4807
sg63
(lp4839
g56
(g77
g58
NtRp4840
(dp4841
g61
(dp4842
sg70
g4836
sg63
(lp4843
g56
(g57
g58
NtRp4844
(dp4845
g61
(dp4846
g69
I1
ssg70
g4840
sg63
(lp4847
S'/admin/default/edit/file_manager/models/menu.py'
p4848
asbasbasbasbasbasbasbag56
(g72
g58
NtRp4849
(dp4850
g61
(dp4851
sg70
g4521
sg63
(lp4852
g56
(g77
g58
NtRp4853
(dp4854
g61
(dp4855
sg70
g4849
sg63
(lp4856
g56
(g57
g58
NtRp4857
(dp4858
g61
(dp4859
g69
I2
ssg70
g4853
sg63
(lp4860
g56
(g65
g58
NtRp4861
(dp4862
g61
(dp4863
g69
I1
ssg70
Nsg63
(lp4864
g56
(g72
g58
NtRp4865
(dp4866
g61
(dp4867
sg70
g4861
sg63
(lp4868
g56
(g77
g58
NtRp4869
(dp4870
g61
(dp4871
sg70
g4865
sg63
(lp4872
g56
(g57
g58
NtRp4873
(dp4874
g61
(dp4875
g69
I1
ssg70
g4869
sg63
(lp4876
g4387
(S's\x08\x00\x00\x00Database'
tRp4877
asbasbasbag56
(g72
g58
NtRp4878
(dp4879
g61
(dp4880
sg70
g4861
sg63
(lp4881
g56
(g77
g58
NtRp4882
(dp4883
g61
(dp4884
sg70
g4878
sg63
(lp4885
g56
(g57
g58
NtRp4886
(dp4887
g61
(dp4888
g69
I1
ssg70
g4882
sg63
(lp4889
I00
asbasbasbag56
(g72
g58
NtRp4890
(dp4891
g61
(dp4892
sg70
g4861
sg63
(lp4893
g56
(g77
g58
NtRp4894
(dp4895
g61
(dp4896
sg70
g4890
sg63
(lp4897
g56
(g57
g58
NtRp4898
(dp4899
g61
(dp4900
g69
I1
ssg70
g4894
sg63
(lp4901
S'/file_manager/appadmin/index'
p4902
asbasbasbasbasbasbasbasbasbasbasbasbasbasbasbasbasbasbasbag56
(g72
g58
NtRp4903
(dp4904
g61
(dp4905
sg70
g3894
sg63
(lp4906
g56
(g77
g58
NtRp4907
(dp4908
g61
(dp4909
g81
g82
ssg70
g4903
sg63
(lp4910
S'meta'
p4911
asbag56
(g77
g58
NtRp4912
(dp4913
g61
(dp4914
g88
g89
ssg70
g4903
sg63
(lp4915
S':'
asbag56
(g77
g58
NtRp4916
(dp4917
g61
(dp4918
sg70
g4903
sg63
(lp4919
g56
(g57
g58
NtRp4920
(dp4921
g61
(dp4922
g69
I5
ssg70
g4916
sg63
(lp4923
g56
(g65
g58
NtRp4924
(dp4925
g61
(dp4926
g69
I4
ssg70
Nsg63
(lp4927
sbasbasbasbag56
(g72
g58
NtRp4928
(dp4929
g61
(dp4930
sg70
g3894
sg63
(lp4931
g56
(g77
g58
NtRp4932
(dp4933
g61
(dp4934
g81
g82
ssg70
g4928
sg63
(lp4935
S'postprocessing'
p4936
asbag56
(g77
g58
NtRp4937
(dp4938
g61
(dp4939
g88
g89
ssg70
g4928
sg63
(lp4940
S':'
asbag56
(g77
g58
NtRp4941
(dp4942
g61
(dp4943
sg70
g4928
sg63
(lp4944
g56
(g57
g58
NtRp4945
(dp4946
g61
(dp4947
g69
I5
ssg70
g4941
sg63
(lp4948
g56
(g65
g58
NtRp4949
(dp4950
g61
(dp4951
g69
I4
ssg70
Nsg63
(lp4952
sbasbasbasbag56
(g72
g58
NtRp4953
(dp4954
g61
(dp4955
sg70
g3894
sg63
(lp4956
g56
(g77
g58
NtRp4957
(dp4958
g61
(dp4959
g81
g82
ssg70
g4953
sg63
(lp4960
S'session_filename'
p4961
asbag56
(g77
g58
NtRp4962
(dp4963
g61
(dp4964
g88
g89
ssg70
g4953
sg63
(lp4965
S':'
asbag56
(g77
g58
NtRp4966
(dp4967
g61
(dp4968
sg70
g4953
sg63
(lp4969
g56
(g57
g58
NtRp4970
(dp4971
g61
(dp4972
g69
I5
ssg70
g4966
sg63
(lp4973
S'/home/samu/projects/web2py_cms/web2py/applications/file_manager/sessions/127.0.0.1-26d1c7a4-c4aa-449b-9d5d-e62e8e8ddc69'
p4974
asbasbasbag56
(g72
g58
NtRp4975
(dp4976
g61
(dp4977
sg70
g3894
sg63
(lp4978
g56
(g77
g58
NtRp4979
(dp4980
g61
(dp4981
g81
g82
ssg70
g4975
sg63
(lp4982
S'session_id'
p4983
asbag56
(g77
g58
NtRp4984
(dp4985
g61
(dp4986
g88
g89
ssg70
g4975
sg63
(lp4987
S':'
asbag56
(g77
g58
NtRp4988
(dp4989
g61
(dp4990
sg70
g4975
sg63
(lp4991
g56
(g57
g58
NtRp4992
(dp4993
g61
(dp4994
g69
I5
ssg70
g4988
sg63
(lp4995
S'127.0.0.1-26d1c7a4-c4aa-449b-9d5d-e62e8e8ddc69'
p4996
asbasbasbag56
(g72
g58
NtRp4997
(dp4998
g61
(dp4999
sg70
g3894
sg63
(lp5000
g56
(g77
g58
NtRp5001
(dp5002
g61
(dp5003
g81
g82
ssg70
g4997
sg63
(lp5004
S'session_id_name'
p5005
asbag56
(g77
g58
NtRp5006
(dp5007
g61
(dp5008
g88
g89
ssg70
g4997
sg63
(lp5009
S':'
asbag56
(g77
g58
NtRp5010
(dp5011
g61
(dp5012
sg70
g4997
sg63
(lp5013
g56
(g57
g58
NtRp5014
(dp5015
g61
(dp5016
g69
I5
ssg70
g5010
sg63
(lp5017
g3951
asbasbasbag56
(g72
g58
NtRp5018
(dp5019
g61
(dp5020
sg70
g3894
sg63
(lp5021
g56
(g77
g58
NtRp5022
(dp5023
g61
(dp5024
g81
g82
ssg70
g5018
sg63
(lp5025
S'session_new'
p5026
asbag56
(g77
g58
NtRp5027
(dp5028
g61
(dp5029
g88
g89
ssg70
g5018
sg63
(lp5030
S':'
asbag56
(g77
g58
NtRp5031
(dp5032
g61
(dp5033
sg70
g5018
sg63
(lp5034
g56
(g57
g58
NtRp5035
(dp5036
g61
(dp5037
g69
I5
ssg70
g5031
sg63
(lp5038
g99
asbasbasbag56
(g72
g58
NtRp5039
(dp5040
g61
(dp5041
sg70
g3894
sg63
(lp5042
g56
(g77
g58
NtRp5043
(dp5044
g61
(dp5045
g81
g82
ssg70
g5039
sg63
(lp5046
S'status'
p5047
asbag56
(g77
g58
NtRp5048
(dp5049
g61
(dp5050
g88
g89
ssg70
g5039
sg63
(lp5051
S':'
asbag56
(g77
g58
NtRp5052
(dp5053
g61
(dp5054
sg70
g5039
sg63
(lp5055
g56
(g57
g58
NtRp5056
(dp5057
g61
(dp5058
g69
I5
ssg70
g5052
sg63
(lp5059
S'200'
p5060
asbasbasbag56
(g72
g58
NtRp5061
(dp5062
g61
(dp5063
sg70
g3894
sg63
(lp5064
g56
(g77
g58
NtRp5065
(dp5066
g61
(dp5067
g81
g82
ssg70
g5061
sg63
(lp5068
S'subtitle'
p5069
asbag56
(g77
g58
NtRp5070
(dp5071
g61
(dp5072
g88
g89
ssg70
g5061
sg63
(lp5073
S':'
asbag56
(g77
g58
NtRp5074
(dp5075
g61
(dp5076
sg70
g5061
sg63
(lp5077
g56
(g57
g58
NtRp5078
(dp5079
g61
(dp5080
g69
I5
ssg70
g5074
sg63
(lp5081
g4387
(S's\r\x00\x00\x00customize me!'
tRp5082
asbasbasbag56
(g72
g58
NtRp5083
(dp5084
g61
(dp5085
sg70
g3894
sg63
(lp5086
g56
(g77
g58
NtRp5087
(dp5088
g61
(dp5089
g81
g82
ssg70
g5083
sg63
(lp5090
S'title'
p5091
asbag56
(g77
g58
NtRp5092
(dp5093
g61
(dp5094
g88
g89
ssg70
g5083
sg63
(lp5095
S':'
asbag56
(g77
g58
NtRp5096
(dp5097
g61
(dp5098
sg70
g5083
sg63
(lp5099
g56
(g57
g58
NtRp5100
(dp5101
g61
(dp5102
g69
I5
ssg70
g5096
sg63
(lp5103
g121
asbasbasbag56
(g72
g58
NtRp5104
(dp5105
g61
(dp5106
sg70
g3894
sg63
(lp5107
g56
(g77
g58
NtRp5108
(dp5109
g61
(dp5110
g81
g82
ssg70
g5104
sg63
(lp5111
g2909
asbag56
(g77
g58
NtRp5112
(dp5113
g61
(dp5114
g88
g89
ssg70
g5104
sg63
(lp5115
S':'
asbag56
(g77
g58
NtRp5116
(dp5117
g61
(dp5118
sg70
g5104
sg63
(lp5119
g56
(g57
g58
NtRp5120
(dp5121
g61
(dp5122
g69
I5
ssg70
g5116
sg63
(lp5123
g2922
asbasbasbag56
(g72
g58
NtRp5124
(dp5125
g61
(dp5126
sg70
g3894
sg63
(lp5127
g56
(g77
g58
NtRp5128
(dp5129
g61
(dp5130
g81
g82
ssg70
g5124
sg63
(lp5131
S'view'
p5132
asbag56
(g77
g58
NtRp5133
(dp5134
g61
(dp5135
g88
g89
ssg70
g5124
sg63
(lp5136
S':'
asbag56
(g77
g58
NtRp5137
(dp5138
g61
(dp5139
sg70
g5124
sg63
(lp5140
g56
(g57
g58
NtRp5141
(dp5142
g61
(dp5143
g69
I5
ssg70
g5137
sg63
(lp5144
S'default/add.html'
p5145
asbasbasbasbasbsS'locals'
p5146
(dp5147
g3798
S"''"
p5148
sS'parentpath'
p5149
S"'/Documents/'"
p5150
sssS'traceback'
p5151
S'Traceback (most recent call last):\n  File "/home/samu/projects/web2py_cms/web2py/gluon/restricted.py", line 194, in restricted\n    exec ccode in environment\n  File "/home/samu/projects/web2py_cms/web2py/applications/file_manager/controllers/default.py", line 396, in <module>\n  File "/home/samu/projects/web2py_cms/web2py/gluon/globals.py", line 149, in <lambda>\n    self._caller = lambda f: f()\n  File "/home/samu/projects/web2py_cms/web2py/applications/file_manager/controllers/default.py", line 317, in add\n    filename=file.filename.replace(\' \',\'_\')\nAttributeError: \'str\' object has no attribute \'filename\'\n'
p5152
s.